******************************************************************************
               TMS320C6x Linker PC v8.3.12                     
******************************************************************************
>> Linked Tue Apr 26 18:23:01 2022

OUTPUT FILE NAME:   <LED_C++.out>
ENTRY POINT SYMBOL: "_c_int00"  address: 1182d820


MEMORY CONFIGURATION

         name            origin    length      used     unused   attr    fill
----------------------  --------  ---------  --------  --------  ----  --------
  DSPL2RAM              11800000   00040000  00038e02  000071fe  RWIX
  SHRAM                 80000000   00020000  00000000  00020000  RWIX
  DDR2                  c0000000   08000000  00000000  08000000  RWIX


SEGMENT ALLOCATION MAP

run origin  load origin   length   init length attrs members
----------  ----------- ---------- ----------- ----- -------
11800000    11800000    00035650   00035650    r-x
  11800000    11800000    00033280   00033280    r-x .text
  11833280    11833280    000023c9   000023c9    r-- .const
  1183564c    1183564c    00000004   00000004    r-- .init_array
11835650    11835650    000031fc   00000000    rw-
  11835650    11835650    00001000   00000000    rw- .stack
  11836650    11836650    00001000   00000000    rw- .sysmem
  11837650    11837650    00000de1   00000000    rw- .far
  11838434    11838434    00000004   00000000    rw- .bss
  11838438    11838438    00000414   00000000    rw- .fardata
1183884c    1183884c    000003e4   000003e4    r--
  1183884c    1183884c    000003e4   000003e4    r-- .switch
11838c30    11838c30    00000120   00000000    rw-
  11838c30    11838c30    00000120   00000000    rw- .cio
11838d50    11838d50    000000b8   000000b8    r--
  11838d50    11838d50    000000b8   000000b8    r-- .cinit


SECTION ALLOCATION MAP

 output                                  attributes/
section   page    origin      length       input sections
--------  ----  ----------  ----------   ----------------
.text      0    11800000    00033280     
                  11800000    000020c0     rts6740_elf.lib : _printfi.c.obj (.text:__TI_printfi)
                  118020c0    00002080                     : _scanfi.c.obj (.text:__TI_scanfi)
                  11804140    00001900                     : locale.cpp.obj (.text:_ZNSt3__29money_getIcNS_19istreambuf_iteratorIcNS_11char_traitsIcEEEEE8__do_getERS4_S4_bRKNS_6localeEjRjRbRKNS_5ctypeIcEERNS_10unique_ptrIcPFvPvEEERPcSM_)
                  11805a40    00001740                     : locale.cpp.obj (.text:_ZNSt3__29money_getIwNS_19istreambuf_iteratorIwNS_11char_traitsIwEEEEE8__do_getERS4_S4_bRKNS_6localeEjRjRbRKNS_5ctypeIwEERNS_10unique_ptrIwPFvPvEEERPwSM_)
                  11807180    00000c00                     : strftime.c.obj (.text:strftime)
                  11807d80    00000920                     : strtod.c.obj (.text:strtod)
                  118086a0    000008e0                     : strtof.c.obj (.text:strtof)
                  11808f80    00000840                     : locale.cpp.obj (.text:_ZNSt3__26locale5__impC1Ej)
                  118097c0    000007a0                     : locale.cpp.obj (.text:_ZNSt3__211__money_putIcE13__gather_infoEbbRKNS_6localeERNS_10money_base7patternERcS8_RNS_12basic_stringIcNS_11char_traitsIcEENS_9allocatorIcEEEESF_SF_Ri)
                  11809f60    00000780                     : locale.cpp.obj (.text:_ZNSt3__211__money_putIwE8__formatEPwRS2_S3_jPKwS5_RKNS_5ctypeIwEEbRKNS_10money_base7patternEwwRKNS_12basic_stringIcNS_11char_traitsIcEENS_9allocatorIcEEEERKNSE_IwNSF_IwEENSH_IwEEEESQ_i)
                  1180a6e0    00000760                     : locale.cpp.obj (.text:_ZNSt3__211__money_putIwE13__gather_infoEbbRKNS_6localeERNS_10money_base7patternERwS8_RNS_12basic_stringIcNS_11char_traitsIcEENS_9allocatorIcEEEERNS9_IwNSA_IwEENSC_IwEEEESJ_Ri)
                  1180ae40    00000740                     : locale.cpp.obj (.text:_ZNSt3__29__num_putIcE23__widen_and_group_floatEPcS2_S2_S2_RS2_S3_RKNS_6localeE)
                  1180b580    00000740                     : locale.cpp.obj (.text:_ZNSt3__29__num_putIwE23__widen_and_group_floatEPcS2_S2_PwRS3_S4_RKNS_6localeE)
                  1180bcc0    00000720                     : locale.cpp.obj (.text:_ZNKSt3__28time_getIwNS_19istreambuf_iteratorIwNS_11char_traitsIwEEEEE6do_getES4_S4_RNS_8ios_baseERjP2tmcc)
                  1180c3e0    000006e0                     : locale.cpp.obj (.text:_ZNKSt3__28time_getIcNS_19istreambuf_iteratorIcNS_11char_traitsIcEEEEE6do_getES4_S4_RNS_8ios_baseERjP2tmcc)
                  1180cac0    000006e0                     : locale.cpp.obj (.text:_ZNSt3__211__money_getIcE13__gather_infoEbRKNS_6localeERNS_10money_base7patternERcS8_RNS_12basic_stringIcNS_11char_traitsIcEENS_9allocatorIcEEEESF_SF_SF_Ri)
                  1180d1a0    000006e0                     : locale.cpp.obj (.text:_ZNSt3__211__money_getIwE13__gather_infoEbRKNS_6localeERNS_10money_base7patternERwS8_RNS_12basic_stringIcNS_11char_traitsIcEENS_9allocatorIcEEEERNS9_IwNSA_IwEENSC_IwEEEESJ_SJ_Ri)
                  1180d880    000006e0                     : locale.cpp.obj (.text:_ZNSt3__211__money_putIcE8__formatEPcRS2_S3_jPKcS5_RKNS_5ctypeIcEEbRKNS_10money_base7patternEccRKNS_12basic_stringIcNS_11char_traitsIcEENS_9allocatorIcEEEESL_SL_i)
                  1180df60    00000660                     : _printfi.c.obj (.text:_pconv_a)
                  1180e5c0    00000600                     : divd.c.obj (.text:__c6xabi_divd)
                  1180ebc0    000005a0                     : locale.cpp.obj (.text:_ZNSt3__214__scan_keywordINS_19istreambuf_iteratorIwNS_11char_traitsIwEEEEPKNS_12basic_stringIwS3_NS_9allocatorIwEEEENS_5ctypeIwEEEET0_RT_SE_SD_SD_RKT1_Rjb)
                  1180f160    00000580                     : locale.cpp.obj (.text:_ZNSt3__29__num_putIcE21__widen_and_group_intEPcS2_S2_S2_RS2_S3_RKNS_6localeE)
                  1180f6e0    00000580                     : locale.cpp.obj (.text:_ZNSt3__29__num_putIwE21__widen_and_group_intEPcS2_S2_PwRS3_S4_RKNS_6localeE)
                  1180fc60    00000540                     : locale.cpp.obj (.text:_ZNKSt3__29money_getIcNS_19istreambuf_iteratorIcNS_11char_traitsIcEEEEE6do_getES4_S4_bRNS_8ios_baseERjRNS_12basic_stringIcS3_NS_9allocatorIcEEEE)
                  118101a0    00000540                     : locale.cpp.obj (.text:_ZNSt3__214__scan_keywordINS_19istreambuf_iteratorIcNS_11char_traitsIcEEEEPKNS_12basic_stringIcS3_NS_9allocatorIcEEEENS_5ctypeIcEEEET0_RT_SE_SD_SD_RKT1_Rjb)
                  118106e0    00000520                     : iostream.cpp.obj (.text:_ZNSt3__28ios_base4InitC1Ev)
                  11810c00    00000500                     : locale.cpp.obj (.text:_ZNKSt3__29money_putIwNS_19ostreambuf_iteratorIwNS_11char_traitsIwEEEEE6do_putES4_bRNS_8ios_baseEwe)
                  11811100    000004e0                     : locale.cpp.obj (.text:_ZNKSt3__29money_getIwNS_19istreambuf_iteratorIwNS_11char_traitsIwEEEEE6do_getES4_S4_bRNS_8ios_baseERjRNS_12basic_stringIwS3_NS_9allocatorIwEEEE)
                  118115e0    000004c0                     : strtoll.c.obj (.text:strtoll)
                  11811aa0    000004a0                     : locale.cpp.obj (.text:_ZNKSt3__29money_putIcNS_19ostreambuf_iteratorIcNS_11char_traitsIcEEEEE6do_putES4_bRNS_8ios_baseEce)
                  11811f40    00000440                     : locale.cpp.obj (.text:_ZNKSt3__29money_putIwNS_19ostreambuf_iteratorIwNS_11char_traitsIwEEEEE6do_putES4_bRNS_8ios_baseEwRKNS_12basic_stringIwS3_NS_9allocatorIwEEEE)
                  11812380    00000440                     : vla_alloc.c.obj (.text:__vla_alloc)
                  118127c0    00000440                     : strtoull.c.obj (.text:strtoull)
                  11812c00    00000400                     : locale.cpp.obj (.text:_ZN32_INTERNAL_10_locale_cpp_a7183203St3__213utf8_to_utf16EPKhS1_RS1_PtS3_RS3_mNS_12codecvt_modeE)
                  11813000    00000400                     : locale.cpp.obj (.text:_ZNKSt3__29money_putIcNS_19ostreambuf_iteratorIcNS_11char_traitsIcEEEEE6do_putES4_bRNS_8ios_baseEcRKNS_12basic_stringIcS3_NS_9allocatorIcEEEE)
                  11813400    00000400                     : _printfi.c.obj (.text:_pconv_g)
                  11813800    00000400     main.obj (.text)
                  11813c00    000003e0     rts6740_elf.lib : locale.cpp.obj (.text:_ZN32_INTERNAL_10_locale_cpp_a7183203St3__212utf8_to_ucs4EPKhS1_RS1_PjS3_RS3_mNS_12codecvt_modeE)
                  11813fe0    000003c0                     : locale.cpp.obj (.text:_ZNKSt3__27num_getIwNS_19istreambuf_iteratorIwNS_11char_traitsIwEEEEE15__do_get_signedIlEES4_S4_S4_RNS_8ios_baseERjRT_)
                  118143a0    000003c0                     : locale.cpp.obj (.text:_ZNKSt3__27num_getIwNS_19istreambuf_iteratorIwNS_11char_traitsIwEEEEE15__do_get_signedIxEES4_S4_S4_RNS_8ios_baseERjRT_)
                  11814760    000003c0                     : locale.cpp.obj (.text:_ZNKSt3__27num_getIwNS_19istreambuf_iteratorIwNS_11char_traitsIwEEEEE17__do_get_unsignedIjEES4_S4_S4_RNS_8ios_baseERjRT_)
                  11814b20    000003c0                     : locale.cpp.obj (.text:_ZNKSt3__27num_getIwNS_19istreambuf_iteratorIwNS_11char_traitsIwEEEEE17__do_get_unsignedImEES4_S4_S4_RNS_8ios_baseERjRT_)
                  11814ee0    000003c0                     : locale.cpp.obj (.text:_ZNKSt3__27num_getIwNS_19istreambuf_iteratorIwNS_11char_traitsIwEEEEE17__do_get_unsignedItEES4_S4_S4_RNS_8ios_baseERjRT_)
                  118152a0    000003c0                     : locale.cpp.obj (.text:_ZNKSt3__27num_getIwNS_19istreambuf_iteratorIwNS_11char_traitsIwEEEEE17__do_get_unsignedIyEES4_S4_S4_RNS_8ios_baseERjRT_)
                  11815660    000003c0                     : locale.cpp.obj (.text:_ZNKSt3__28time_getIwNS_19istreambuf_iteratorIwNS_11char_traitsIwEEEEE3getES4_S4_RNS_8ios_baseERjP2tmPKwSC_)
                  11815a20    000003c0                     : memory.c.obj (.text:free)
                  11815de0    000003c0                     : fwrite.c.obj (.text:fwrite)
                  118161a0    000003a0                     : locale.cpp.obj (.text:_ZNKSt3__27num_getIwNS_19istreambuf_iteratorIwNS_11char_traitsIwEEEEE6do_getES4_S4_RNS_8ios_baseERjRPv)
                  11816540    000003a0                     : locale.cpp.obj (.text:_ZNKSt3__29money_getIcNS_19istreambuf_iteratorIcNS_11char_traitsIcEEEEE6do_getES4_S4_bRNS_8ios_baseERjRe)
                  118168e0    000003a0                     : strtol.c.obj (.text:strtol)
                  11816c80    00000380                     : locale.cpp.obj (.text:_ZN32_INTERNAL_10_locale_cpp_a7183203St3__213utf16_to_utf8EPKtS1_RS1_PhS3_RS3_mNS_12codecvt_modeE)
                  11817000    00000380                     : locale.cpp.obj (.text:_ZNKSt3__27num_getIcNS_19istreambuf_iteratorIcNS_11char_traitsIcEEEEE15__do_get_signedIlEES4_S4_S4_RNS_8ios_baseERjRT_)
                  11817380    00000380                     : locale.cpp.obj (.text:_ZNKSt3__27num_getIcNS_19istreambuf_iteratorIcNS_11char_traitsIcEEEEE15__do_get_signedIxEES4_S4_S4_RNS_8ios_baseERjRT_)
                  11817700    00000380                     : locale.cpp.obj (.text:_ZNKSt3__27num_getIcNS_19istreambuf_iteratorIcNS_11char_traitsIcEEEEE17__do_get_unsignedIjEES4_S4_S4_RNS_8ios_baseERjRT_)
                  11817a80    00000380                     : locale.cpp.obj (.text:_ZNKSt3__27num_getIcNS_19istreambuf_iteratorIcNS_11char_traitsIcEEEEE17__do_get_unsignedImEES4_S4_S4_RNS_8ios_baseERjRT_)
                  11817e00    00000380                     : locale.cpp.obj (.text:_ZNKSt3__27num_getIcNS_19istreambuf_iteratorIcNS_11char_traitsIcEEEEE17__do_get_unsignedItEES4_S4_S4_RNS_8ios_baseERjRT_)
                  11818180    00000380                     : locale.cpp.obj (.text:_ZNKSt3__27num_getIcNS_19istreambuf_iteratorIcNS_11char_traitsIcEEEEE17__do_get_unsignedIyEES4_S4_S4_RNS_8ios_baseERjRT_)
                  11818500    00000380                     : locale.cpp.obj (.text:_ZNKSt3__27num_getIcNS_19istreambuf_iteratorIcNS_11char_traitsIcEEEEE6do_getES4_S4_RNS_8ios_baseERjRPv)
                  11818880    00000360                     : locale.cpp.obj (.text:_ZN32_INTERNAL_10_locale_cpp_a7183203St3__220utf8_to_utf16_lengthEPKhS1_jmNS_12codecvt_modeE)
                  11818be0    00000360                     : locale.cpp.obj (.text:_ZNKSt3__27num_getIcNS_19istreambuf_iteratorIcNS_11char_traitsIcEEEEE23__do_get_floating_pointIdEES4_S4_S4_RNS_8ios_baseERjRT_)
                  11818f40    00000360                     : locale.cpp.obj (.text:_ZNKSt3__27num_getIcNS_19istreambuf_iteratorIcNS_11char_traitsIcEEEEE23__do_get_floating_pointIeEES4_S4_S4_RNS_8ios_baseERjRT_)
                  118192a0    00000360                     : locale.cpp.obj (.text:_ZNKSt3__27num_getIcNS_19istreambuf_iteratorIcNS_11char_traitsIcEEEEE23__do_get_floating_pointIfEES4_S4_S4_RNS_8ios_baseERjRT_)
                  11819600    00000360                     : locale.cpp.obj (.text:_ZNKSt3__27num_getIwNS_19istreambuf_iteratorIwNS_11char_traitsIwEEEEE23__do_get_floating_pointIdEES4_S4_S4_RNS_8ios_baseERjRT_)
                  11819960    00000360                     : locale.cpp.obj (.text:_ZNKSt3__27num_getIwNS_19istreambuf_iteratorIwNS_11char_traitsIwEEEEE23__do_get_floating_pointIeEES4_S4_S4_RNS_8ios_baseERjRT_)
                  11819cc0    00000360                     : locale.cpp.obj (.text:_ZNKSt3__27num_getIwNS_19istreambuf_iteratorIwNS_11char_traitsIwEEEEE23__do_get_floating_pointIfEES4_S4_S4_RNS_8ios_baseERjRT_)
                  1181a020    00000360                     : memory.c.obj (.text:realloc)
                  1181a380    00000340                     : locale.cpp.obj (.text:_ZN32_INTERNAL_10_locale_cpp_a7183203St3__219utf8_to_ucs4_lengthEPKhS1_jmNS_12codecvt_modeE)
                  1181a6c0    00000340                     : locale.cpp.obj (.text:_ZNKSt3__28time_getIcNS_19istreambuf_iteratorIcNS_11char_traitsIcEEEEE3getES4_S4_RNS_8ios_baseERjP2tmPKcSC_)
                  1181aa00    00000320                     : locale.cpp.obj (.text:_ZNKSt3__220__time_get_c_storageIcE8__monthsEv)
                  1181ad20    00000320                     : locale.cpp.obj (.text:_ZNKSt3__220__time_get_c_storageIwE8__monthsEv)
                  1181b040    00000320                     : locale.cpp.obj (.text:_ZNKSt3__27num_putIwNS_19ostreambuf_iteratorIwNS_11char_traitsIwEEEEE6do_putES4_RNS_8ios_baseEwe)
                  1181b360    00000320                     : locale.cpp.obj (.text:_ZNSt3__216__pad_and_outputIwNS_11char_traitsIwEEEENS_19ostreambuf_iteratorIT_T0_EES6_PKS4_S8_S8_RNS_8ios_baseES4_)
                  1181b680    00000300                     : locale.cpp.obj (.text:_ZNKSt3__27codecvtIwciE5do_inERiPKcS4_RS4_PwS6_RS6_)
                  1181b980    00000300                     : locale.cpp.obj (.text:_ZNKSt3__27codecvtIwciE6do_outERiPKwS4_RS4_PcS6_RS6_)
                  1181bc80    00000300                     : locale.cpp.obj (.text:_ZNKSt3__29money_getIwNS_19istreambuf_iteratorIwNS_11char_traitsIwEEEEE6do_getES4_S4_bRNS_8ios_baseERjRe)
                  1181bf80    00000300                     : strtoul.c.obj (.text:strtoul)
                  1181c280    000002e0                     : locale.cpp.obj (.text:_ZNKSt3__27num_putIcNS_19ostreambuf_iteratorIcNS_11char_traitsIcEEEEE6do_putES4_RNS_8ios_baseEcd)
                  1181c560    000002e0                     : locale.cpp.obj (.text:_ZNKSt3__27num_putIcNS_19ostreambuf_iteratorIcNS_11char_traitsIcEEEEE6do_putES4_RNS_8ios_baseEce)
                  1181c840    000002e0                     : locale.cpp.obj (.text:_ZNKSt3__27num_putIwNS_19ostreambuf_iteratorIwNS_11char_traitsIwEEEEE6do_putES4_RNS_8ios_baseEwd)
                  1181cb20    000002c0                     : locale.cpp.obj (.text:_ZNSt3__29__num_getIwE19__stage2_float_loopEwRbRcPcRS4_wwRKNS_12basic_stringIcNS_11char_traitsIcEENS_9allocatorIcEEEEPjRSE_RjPw)
                  1181cde0    000002a0                     : string.cpp.obj (.text:_ZNSt3__212basic_stringIwNS_11char_traitsIwEENS_9allocatorIwEEE21__grow_by_and_replaceEjjjjjjPKw)
                  1181d080    000002a0                     : locale.cpp.obj (.text:_ZNSt3__29__num_getIcE19__stage2_float_loopEcRbRcPcRS4_ccRKNS_12basic_stringIcNS_11char_traitsIcEENS_9allocatorIcEEEEPjRSE_RjS4_)
                  1181d320    000002a0                     : divf.c.obj (.text:__c6xabi_divf)
                  1181d5c0    000002a0                     : _printfi.c.obj (.text:_pconv_e)
                  1181d860    000002a0                     : _printfi.c.obj (.text:fcvt)
                  1181db00    00000280                     : string.cpp.obj (.text:_ZNSt3__212basic_stringIwNS_11char_traitsIwEENS_9allocatorIwEEE7reserveEj)
                  1181dd80    00000260                     : locale.cpp.obj (.text:_ZN32_INTERNAL_10_locale_cpp_a7183203St3__212ucs4_to_utf8EPKjS1_RS1_PhS3_RS3_mNS_12codecvt_modeE)
                  1181dfe0    00000260                     : iostream.cpp.obj (.text:_ZNSt3__210__stdinbufIcE9__getcharEb)
                  1181e240    00000260                     : iostream.cpp.obj (.text:_ZNSt3__210__stdinbufIwE9__getcharEb)
                  1181e4a0    00000260                     : string.cpp.obj (.text:_ZNSt3__212basic_stringIcNS_11char_traitsIcEENS_9allocatorIcEEE21__grow_by_and_replaceEjjjjjjPKc)
                  1181e700    00000260                     : imath64.c.obj (.text:__c6xabi_divull)
                  1181e960    00000240                     : locale.cpp.obj (.text:_ZNKSt3__220__time_get_c_storageIcE7__weeksEv)
                  1181eba0    00000240                     : locale.cpp.obj (.text:_ZNKSt3__220__time_get_c_storageIwE7__weeksEv)
                  1181ede0    00000240                     : string.cpp.obj (.text:_ZNSt3__212basic_stringIcNS_11char_traitsIcEENS_9allocatorIcEEE7reserveEj)
                  1181f020    00000240                     : string.cpp.obj (.text:_ZNSt3__212basic_stringIwNS_11char_traitsIwEENS_9allocatorIwEEE9__grow_byEjjjjjj)
                  1181f260    00000220                     : locale.cpp.obj (.text:_ZNKSt3__27collateIcE7do_hashEPKcS3_)
                  1181f480    00000220                     : locale.cpp.obj (.text:_ZNSt3__220__get_up_to_n_digitsIwNS_19istreambuf_iteratorIwNS_11char_traitsIwEEEEEEiRT0_S5_RjRKNS_5ctypeIT_EEi)
                  1181f6a0    00000220                     : locale.cpp.obj (.text:_ZNSt3__29__num_getIcE17__stage2_int_loopEciPcRS2_RjcRKNS_12basic_stringIcNS_11char_traitsIcEENS_9allocatorIcEEEEPjRSD_PKc)
                  1181f8c0    00000200                     : locale.cpp.obj (.text:_ZNKSt3__27num_putIwNS_19ostreambuf_iteratorIwNS_11char_traitsIwEEEEE6do_putES4_RNS_8ios_baseEwb)
                  1181fac0    00000200                     : string.cpp.obj (.text:_ZNSt3__212basic_stringIcNS_11char_traitsIcEENS_9allocatorIcEEE9__grow_byEjjjjjj)
                  1181fcc0    00000200                     : locale.cpp.obj (.text:_ZNSt3__220__get_up_to_n_digitsIcNS_19istreambuf_iteratorIcNS_11char_traitsIcEEEEEEiRT0_S5_RjRKNS_5ctypeIT_EEi)
                  1181fec0    00000200                     : locale.cpp.obj (.text:_ZNSt3__26vectorIPNS_6locale5facetENS_15__sso_allocatorIS3_Lj28EEEE8__appendEj)
                  118200c0    00000200                     : locale.cpp.obj (.text:_ZNSt3__29__num_getIwE17__stage2_int_loopEwiPcRS2_RjwRKNS_12basic_stringIcNS_11char_traitsIcEENS_9allocatorIcEEEEPjRSD_PKw)
                  118202c0    00000200                     : _printfi.c.obj (.text:_ltostr)
                  118204c0    000001e0                     : locale.cpp.obj (.text:_ZNKSt3__27collateIwE12do_transformEPKwS3_)
                  118206a0    000001e0                     : locale.cpp.obj (.text:_ZNKSt3__27num_getIcNS_19istreambuf_iteratorIcNS_11char_traitsIcEEEEE6do_getES4_S4_RNS_8ios_baseERjRb)
                  11820880    000001e0                     : locale.cpp.obj (.text:_ZNKSt3__27num_getIwNS_19istreambuf_iteratorIwNS_11char_traitsIwEEEEE6do_getES4_S4_RNS_8ios_baseERjRb)
                  11820a60    000001e0                     : locale.cpp.obj (.text:_ZNKSt3__27num_putIcNS_19ostreambuf_iteratorIcNS_11char_traitsIcEEEEE6do_putES4_RNS_8ios_baseEcb)
                  11820c40    000001c0                     : locale.cpp.obj (.text:_ZNKSt3__210__time_put8__do_putEPwRS1_PK2tmcc)
                  11820e00    000001c0                     : locale.cpp.obj (.text:_ZNKSt3__220__time_get_c_storageIcE3__XEv)
                  11820fc0    000001c0                     : locale.cpp.obj (.text:_ZNKSt3__220__time_get_c_storageIcE3__cEv)
                  11821180    000001c0                     : locale.cpp.obj (.text:_ZNKSt3__220__time_get_c_storageIcE3__rEv)
                  11821340    000001c0                     : locale.cpp.obj (.text:_ZNKSt3__220__time_get_c_storageIcE3__xEv)
                  11821500    000001c0                     : locale.cpp.obj (.text:_ZNKSt3__220__time_get_c_storageIwE3__XEv)
                  118216c0    000001c0                     : locale.cpp.obj (.text:_ZNKSt3__220__time_get_c_storageIwE3__cEv)
                  11821880    000001c0                     : locale.cpp.obj (.text:_ZNKSt3__220__time_get_c_storageIwE3__rEv)
                  11821a40    000001c0                     : locale.cpp.obj (.text:_ZNKSt3__220__time_get_c_storageIwE3__xEv)
                  11821c00    000001c0                     : ios.cpp.obj (.text:_ZNSt3__213basic_ostreamIcNS_11char_traitsIcEEElsEi)
                  11821dc0    000001c0                     : imath40.c.obj (.text:__c6xabi_divul)
                  11821f80    000001c0                     : frexp.c.obj (.text:frexp)
                  11822140    000001c0                     : ldexp.c.obj (.text:ldexp)
                  11822300    000001c0                     : ldexpf.c.obj (.text:ldexpf)
                  118224c0    000001c0                     : memory.c.obj (.text:malloc)
                  11822680    000001c0                     : setvbuf.c.obj (.text:setvbuf)
                  11822840    000001a0                     : hostrename.c.obj (.text:HOSTrename)
                  118229e0    00000180                     : locale.cpp.obj (.text:_ZNKSt3__27collateIcE12do_transformEPKcS3_)
                  11822b60    00000180                     : locale.cpp.obj (.text:_ZNKSt3__28numpunctIcE11do_truenameEv)
                  11822ce0    00000180                     : locale.cpp.obj (.text:_ZNKSt3__28numpunctIcE12do_falsenameEv)
                  11822e60    00000180                     : iostream.cpp.obj (.text:_ZNSt3__211__stdoutbufIcE8overflowEi)
                  11822fe0    00000180                     : iostream.cpp.obj (.text:_ZNSt3__211__stdoutbufIwE8overflowEi)
                  11823160    00000180                     : locale.cpp.obj (.text:_ZNSt3__219__double_or_nothingIwEEvRNS_10unique_ptrIT_PFvPvEEERPS2_S9_)
                  118232e0    00000180                     : none_mb.c.obj (.text:wcsnrtombs)
                  11823460    00000160                     : locale.cpp.obj (.text:_ZNKSt3__27num_putIcNS_19ostreambuf_iteratorIcNS_11char_traitsIcEEEEE6do_putES4_RNS_8ios_baseEcl)
                  118235c0    00000160                     : locale.cpp.obj (.text:_ZNKSt3__27num_putIcNS_19ostreambuf_iteratorIcNS_11char_traitsIcEEEEE6do_putES4_RNS_8ios_baseEcm)
                  11823720    00000160                     : locale.cpp.obj (.text:_ZNKSt3__27num_putIwNS_19ostreambuf_iteratorIwNS_11char_traitsIwEEEEE6do_putES4_RNS_8ios_baseEwl)
                  11823880    00000160                     : locale.cpp.obj (.text:_ZNKSt3__27num_putIwNS_19ostreambuf_iteratorIwNS_11char_traitsIwEEEEE6do_putES4_RNS_8ios_baseEwm)
                  118239e0    00000160                     : iostream.cpp.obj (.text:_ZNSt3__210__stdinbufIcE9pbackfailEi)
                  11823b40    00000160                     : iostream.cpp.obj (.text:_ZNSt3__210__stdinbufIwE9pbackfailEi)
                  11823ca0    00000160                     : string.cpp.obj (.text:_ZNSt3__212basic_stringIcNS_11char_traitsIcEENS_9allocatorIcEEE6appendEPKcj)
                  11823e00    00000160                     : string.cpp.obj (.text:_ZNSt3__212basic_stringIcNS_11char_traitsIcEENS_9allocatorIcEEE6appendEjc)
                  11823f60    00000160                     : string.cpp.obj (.text:_ZNSt3__212basic_stringIwNS_11char_traitsIwEENS_9allocatorIwEEE6appendEPKwj)
                  118240c0    00000160                     : string.cpp.obj (.text:_ZNSt3__212basic_stringIwNS_11char_traitsIwEENS_9allocatorIwEEE9push_backEw)
                  11824220    00000160                     : locale.cpp.obj (.text:_ZNSt3__219__double_or_nothingIjEEvRNS_10unique_ptrIT_PFvPvEEERPS2_S9_)
                  11824380    00000160                     : _bufread.c.obj (.text:__TI_buff_read)
                  118244e0    00000160                     : sscanf.c.obj (.text:_chkmbc)
                  11824640    00000140                     : vla_alloc.c.obj (.text:_ZN33_INTERNAL_11_vla_alloc_c_be8bd49b21free_dead_allocationsEPv)
                  11824780    00000140                     : locale.cpp.obj (.text:_ZNKSt3__27num_putIcNS_19ostreambuf_iteratorIcNS_11char_traitsIcEEEEE6do_putES4_RNS_8ios_baseEcx)
                  118248c0    00000140                     : locale.cpp.obj (.text:_ZNKSt3__27num_putIcNS_19ostreambuf_iteratorIcNS_11char_traitsIcEEEEE6do_putES4_RNS_8ios_baseEcy)
                  11824a00    00000140                     : locale.cpp.obj (.text:_ZNKSt3__27num_putIwNS_19ostreambuf_iteratorIwNS_11char_traitsIwEEEEE6do_putES4_RNS_8ios_baseEwx)
                  11824b40    00000140                     : locale.cpp.obj (.text:_ZNKSt3__27num_putIwNS_19ostreambuf_iteratorIwNS_11char_traitsIwEEEEE6do_putES4_RNS_8ios_baseEwy)
                  11824c80    00000140                     : locale.cpp.obj (.text:_ZNKSt3__28numpunctIwE11do_truenameEv)
                  11824dc0    00000140                     : locale.cpp.obj (.text:_ZNKSt3__28numpunctIwE12do_falsenameEv)
                  11824f00    00000140                     : locale.cpp.obj (.text:_ZNKSt3__28time_getIcNS_19istreambuf_iteratorIcNS_11char_traitsIcEEEEE13__get_percentERS4_S4_RjRKNS_5ctypeIcEE)
                  11825040    00000140                     : locale.cpp.obj (.text:_ZNKSt3__28time_getIwNS_19istreambuf_iteratorIwNS_11char_traitsIwEEEEE13__get_percentERS4_S4_RjRKNS_5ctypeIwEE)
                  11825180    00000140                     : string.cpp.obj (.text:_ZNSt3__212basic_stringIcNS_11char_traitsIcEENS_9allocatorIcEEE6assignEPKcj)
                  118252c0    00000140                     : string.cpp.obj (.text:_ZNSt3__212basic_stringIcNS_11char_traitsIcEENS_9allocatorIcEEE9push_backEc)
                  11825400    00000140                     : string.cpp.obj (.text:_ZNSt3__212basic_stringIwNS_11char_traitsIwEENS_9allocatorIwEEE6__initEPKwj)
                  11825540    00000140                     : string.cpp.obj (.text:_ZNSt3__212basic_stringIwNS_11char_traitsIwEENS_9allocatorIwEEE6assignEPKwj)
                  11825680    00000140                     : locale.cpp.obj (.text:_ZNSt3__214__num_put_base14__format_floatEPcPKcj)
                  118257c0    00000140                     : ios.cpp.obj (.text:_ZNSt3__215basic_streambufIwNS_11char_traitsIwEEE6xsgetnEPwi)
                  11825900    00000140                     : ios.cpp.obj (.text:_ZNSt3__215basic_streambufIwNS_11char_traitsIwEEE6xsputnEPKwi)
                  11825a40    00000140                     : locale.cpp.obj (.text:_ZNSt3__216__check_groupingERKNS_12basic_stringIcNS_11char_traitsIcEENS_9allocatorIcEEEEPjS8_Rj)
                  11825b80    00000140     main.obj (.text:_ZNSt3__216__pad_and_outputIcNS_11char_traitsIcEEEENS_19ostreambuf_iteratorIT_T0_EES6_PKS4_S8_S8_RNS_8ios_baseES4_)
                  11825cc0    00000140     rts6740_elf.lib : locale.cpp.obj (.text:_ZNSt3__219__double_or_nothingIcEEvRNS_10unique_ptrIT_PFvPvEEERPS2_S9_)
                  11825e00    00000140     main.obj (.text:_ZNSt3__224__put_character_sequenceIcNS_11char_traitsIcEEEERNS_13basic_ostreamIT_T0_EES7_PKS4_j)
                  11825f40    00000140     rts6740_elf.lib : locale.cpp.obj (.text:_ZNSt3__225__num_get_signed_integralIlEET_PKcS3_Rji)
                  11826080    00000140                     : locale.cpp.obj (.text:_ZNSt3__225__num_get_signed_integralIxEET_PKcS3_Rji)
                  118261c0    00000140                     : vla_alloc.c.obj (.text:__vla_dealloc)
                  11826300    00000140                     : _scanfi.c.obj (.text:_sproc_str)
                  11826440    00000140                     : _scanfi.c.obj (.text:_sproc_wstr)
                  11826580    00000140                     : fgetc.c.obj (.text:fgetc)
                  118266c0    00000120                     : locale.cpp.obj (.text:_ZNKSt3__220__time_get_c_storageIcE7__am_pmEv)
                  118267e0    00000120                     : locale.cpp.obj (.text:_ZNKSt3__220__time_get_c_storageIwE7__am_pmEv)
                  11826900    00000120                     : locale.cpp.obj (.text:_ZNKSt3__27num_putIwNS_19ostreambuf_iteratorIwNS_11char_traitsIwEEEEE6do_putES4_RNS_8ios_baseEwPKv)
                  11826a20    00000120                     : locale.cpp.obj (.text:_ZNKSt3__28time_getIcNS_19istreambuf_iteratorIcNS_11char_traitsIcEEEEE11__get_am_pmERiRS4_S4_RjRKNS_5ctypeIcEE)
                  11826b40    00000120                     : locale.cpp.obj (.text:_ZNKSt3__28time_getIwNS_19istreambuf_iteratorIwNS_11char_traitsIwEEEEE11__get_am_pmERiRS4_S4_RjRKNS_5ctypeIwEE)
                  11826c60    00000120                     : locale.cpp.obj (.text:_ZNKSt3__28time_putIwNS_19ostreambuf_iteratorIwNS_11char_traitsIwEEEEE6do_putES4_RNS_8ios_baseEwPK2tmcc)
                  11826d80    00000120                     : ios.cpp.obj (.text:_ZNSt3__213basic_ostreamIcNS_11char_traitsIcEEE3putEc)
                  11826ea0    00000120                     : ios.cpp.obj (.text:_ZNSt3__213basic_ostreamIcNS_11char_traitsIcEEE6sentryD1Ev)
                  11826fc0    00000120                     : ios.cpp.obj (.text:_ZNSt3__213basic_ostreamIwNS_11char_traitsIwEEE6sentryD1Ev)
                  118270e0    00000120                     : ios.cpp.obj (.text:_ZNSt3__215basic_streambufIcNS_11char_traitsIcEEE6xsgetnEPci)
                  11827200    00000120                     : ios.cpp.obj (.text:_ZNSt3__215basic_streambufIcNS_11char_traitsIcEEE6xsputnEPKci)
                  11827320    00000120                     : locale.cpp.obj (.text:_ZNSt3__227__num_get_unsigned_integralIjEET_PKcS3_Rji)
                  11827440    00000120                     : locale.cpp.obj (.text:_ZNSt3__227__num_get_unsigned_integralImEET_PKcS3_Rji)
                  11827560    00000120                     : locale.cpp.obj (.text:_ZNSt3__227__num_get_unsigned_integralItEET_PKcS3_Rji)
                  11827680    00000120                     : locale.cpp.obj (.text:_ZNSt3__227__num_get_unsigned_integralIyEET_PKcS3_Rji)
                  118277a0    00000120                     : locale.cpp.obj (.text:_ZNSt3__26locale5__impD1Ev)
                  118278c0    00000120                     : vec_newdel.c.obj (.text:__cxa_vec_ctor)
                  118279e0    00000120                     : _printfi.c.obj (.text:_pconv_f)
                  11827b00    00000120                     : getdevice.c.obj (.text:getdevice)
                  11827c20    00000100                     : locale.cpp.obj (.text:_ZNKSt3__27num_putIcNS_19ostreambuf_iteratorIcNS_11char_traitsIcEEEEE6do_putES4_RNS_8ios_baseEcPKv)
                  11827d20    00000100                     : locale.cpp.obj (.text:_ZNKSt3__28time_getIcNS_19istreambuf_iteratorIcNS_11char_traitsIcEEEEE17__get_white_spaceERS4_S4_RjRKNS_5ctypeIcEE)
                  11827e20    00000100                     : locale.cpp.obj (.text:_ZNKSt3__28time_putIcNS_19ostreambuf_iteratorIcNS_11char_traitsIcEEEEE6do_putES4_RNS_8ios_baseEcPK2tmcc)
                  11827f20    00000100                     : string.cpp.obj (.text:_ZNSt3__212basic_stringIcNS_11char_traitsIcEENS_9allocatorIcEEE6__initEPKcj)
                  11828020    00000100                     : string.cpp.obj (.text:_ZNSt3__212basic_stringIcNS_11char_traitsIcEENS_9allocatorIcEEE6__initEjc)
                  11828120    00000100                     : string.cpp.obj (.text:_ZNSt3__212basic_stringIcNS_11char_traitsIcEENS_9allocatorIcEEE6resizeEjc)
                  11828220    00000100                     : locale.cpp.obj (.text:_ZNSt3__215__num_get_floatIdEET_PKcS3_Rj)
                  11828320    00000100                     : locale.cpp.obj (.text:_ZNSt3__215__num_get_floatIeEET_PKcS3_Rj)
                  11828420    00000100                     : locale.cpp.obj (.text:_ZNSt3__215__num_get_floatIfEET_PKcS3_Rj)
                  11828520    00000100                     : locale.cpp.obj (.text:_ZNSt3__26locale5__imp7installEPNS0_5facetEl)
                  11828620    00000100                     : locale.cpp.obj (.text:_ZNSt3__2neIwNS_11char_traitsIwEEEEbRKNS_19istreambuf_iteratorIT_T0_EES8_)
                  11828720    00000100                     : autoinit.c.obj (.text:__TI_auto_init_nobinit:__TI_auto_init_nobinit)
                  11828820    00000100                     : fclose.c.obj (.text:__TI_closefile)
                  11828920    00000100                     : copy_decompress_rle.c.obj (.text:__TI_decompress_rle_core)
                  11828a20    00000100                     : _printfi.c.obj (.text:_mcpy)
                  11828b20    00000100                     : atoi.c.obj (.text:atoi)
                  11828c20    00000100                     : fflush.c.obj (.text:fflush)
                  11828d20    00000100                     : fseek.c.obj (.text:fseek)
                  11828e20    00000100                     : none_mb.c.obj (.text:mbsnrtowcs)
                  11828f20    00000100                     : ungetc.c.obj (.text:ungetc)
                  11829020    000000e0                     : hostlseek.c.obj (.text:HOSTlseek)
                  11829100    000000e0                     : hostopen.c.obj (.text:HOSTopen)
                  118291e0    000000e0                     : hostwrite.c.obj (.text:HOSTwrite)
                  118292c0    000000e0                     : locale.cpp.obj (.text:_ZNKSt3__219istreambuf_iteratorIcNS_11char_traitsIcEEE5equalERKS3_)
                  118293a0    000000e0                     : locale.cpp.obj (.text:_ZNKSt3__219istreambuf_iteratorIwNS_11char_traitsIwEEE5equalERKS3_)
                  11829480    000000e0                     : locale.cpp.obj (.text:_ZNKSt3__27codecvtIwciE9do_lengthERiPKcS4_j)
                  11829560    000000e0                     : locale.cpp.obj (.text:_ZNKSt3__28time_getIwNS_19istreambuf_iteratorIwNS_11char_traitsIwEEEEE17__get_white_spaceERS4_S4_RjRKNS_5ctypeIwEE)
                  11829640    000000e0                     : ios.cpp.obj (.text:_ZNSt3__213basic_ostreamIcNS_11char_traitsIcEEE5flushEv)
                  11829720    000000e0                     : ios.cpp.obj (.text:_ZNSt3__213basic_ostreamIwNS_11char_traitsIwEEE5flushEv)
                  11829800    000000e0                     : locale.cpp.obj (.text:_ZNSt3__214__split_bufferIPNS_6locale5facetERNS_15__sso_allocatorIS3_Lj28EEEEC1EjjS6_)
                  118298e0    000000e0                     : locale.cpp.obj (.text:_ZNSt3__2eqIcNS_11char_traitsIcEEEEbRKNS_19istreambuf_iteratorIT_T0_EES8_)
                  118299c0    000000e0                     : _ltoa.c.obj (.text:__TI_ltoa)
                  11829aa0    000000e0                     : _io_perm.c.obj (.text:__TI_wrt_ok)
                  11829b80    000000e0                     : divi.asm.obj (.text:__divi)
                  11829c60    000000e0                     : close.c.obj (.text:close)
                  11829d40    000000e0                     : exit.c.obj (.text:exit)
                  11829e20    000000e0                     : memset.c.obj (.text:memset)
                  11829f00    000000c0                     : hostread.c.obj (.text:HOSTread)
                  11829fc0    000000c0                     : hostunlink.c.obj (.text:HOSTunlink)
                  1182a080    000000c0                     : dtor_list.c.obj (.text:_Z23__finalize_destructionsPP20a_needed_destructionPv)
                  1182a140    000000c0                     : dtor_list.c.obj (.text:_ZN33_INTERNAL_11_dtor_list_c_14e673d611__TI_atexitEPFYvPvES0_S0_)
                  1182a200    000000c0                     : locale.cpp.obj (.text:_ZNKSt3__25ctypeIcE10do_tolowerEPcPKc)
                  1182a2c0    000000c0                     : locale.cpp.obj (.text:_ZNKSt3__25ctypeIcE10do_toupperEPcPKc)
                  1182a380    000000c0                     : locale.cpp.obj (.text:_ZNKSt3__25ctypeIwE10do_tolowerEPwPKw)
                  1182a440    000000c0                     : locale.cpp.obj (.text:_ZNKSt3__25ctypeIwE10do_toupperEPwPKw)
                  1182a500    000000c0                     : locale.cpp.obj (.text:_ZNKSt3__28time_getIcNS_19istreambuf_iteratorIcNS_11char_traitsIcEEEEE17__get_weekdaynameERiRS4_S4_RjRKNS_5ctypeIcEE)
                  1182a5c0    000000c0                     : locale.cpp.obj (.text:_ZNKSt3__28time_getIwNS_19istreambuf_iteratorIwNS_11char_traitsIwEEEEE17__get_weekdaynameERiRS4_S4_RjRKNS_5ctypeIwEE)
                  1182a680    000000c0                     : ios.cpp.obj (.text:_ZNKSt3__29basic_iosIcNS_11char_traitsIcEEE4fillEv)
                  1182a740    000000c0                     : iostream.cpp.obj (.text:_ZNSt3__210__stdinbufIcE5imbueERKNS_6localeE)
                  1182a800    000000c0                     : iostream.cpp.obj (.text:_ZNSt3__211__stdoutbufIcE4syncEv)
                  1182a8c0    000000c0                     : iostream.cpp.obj (.text:_ZNSt3__211__stdoutbufIcE6xsputnEPKci)
                  1182a980    000000c0                     : iostream.cpp.obj (.text:_ZNSt3__211__stdoutbufIwE4syncEv)
                  1182aa40    000000c0                     : iostream.cpp.obj (.text:_ZNSt3__211__stdoutbufIwE6xsputnEPKwi)
                  1182ab00    000000c0                     : string.cpp.obj (.text:_ZNSt3__212basic_stringIcNS_11char_traitsIcEENS_9allocatorIcEEEC1ERKS5_)
                  1182abc0    000000c0                     : string.cpp.obj (.text:_ZNSt3__212basic_stringIwNS_11char_traitsIwEENS_9allocatorIwEEEC1ERKS5_)
                  1182ac80    000000c0                     : ios.cpp.obj (.text:_ZNSt3__213basic_ostreamIcNS_11char_traitsIcEEE6sentryC1ERS3_)
                  1182ad40    000000c0                     : ios.cpp.obj (.text:_ZNSt3__213basic_ostreamIwNS_11char_traitsIwEEE6sentryC1ERS3_)
                  1182ae00    000000c0                     : locale.cpp.obj (.text:_ZNSt3__214__num_put_base12__format_intEPcPKcbj)
                  1182aec0    000000c0                     : locale.cpp.obj (.text:_ZNSt3__26vectorIPNS_6locale5facetENS_15__sso_allocatorIS3_Lj28EEEE8allocateEj)
                  1182af80    000000c0                     : locale.cpp.obj (.text:_ZNSt3__29__num_getIcE19__stage2_float_prepERNS_8ios_baseEPcRcS5_)
                  1182b040    000000c0                     : locale.cpp.obj (.text:_ZNSt3__29__num_getIwE19__stage2_float_prepERNS_8ios_baseEPwRwS5_)
                  1182b100    000000c0                     : divu.asm.obj (.text:__divu)
                  1182b1c0    000000c0                     : memory.c.obj (.text:mremove)
                  1182b280    000000c0                     : tls.c.obj (.text:tls:init:__TI_tls_init)
                  1182b340    000000a0                     : hostclose.c.obj (.text:HOSTclose)
                  1182b3e0    000000a0                     : locale.cpp.obj (.text:_ZNKSt3__25ctypeIcE9do_narrowEPKcS3_cPc)
                  1182b480    000000a0                     : locale.cpp.obj (.text:_ZNKSt3__27codecvtIwciE10do_unshiftERiPcS3_RS3_)
                  1182b520    000000a0                     : locale.cpp.obj (.text:_ZNKSt3__27collateIcE10do_compareEPKcS3_S3_S3_)
                  1182b5c0    000000a0                     : locale.cpp.obj (.text:_ZNKSt3__27collateIwE10do_compareEPKwS3_S3_S3_)
                  1182b660    000000a0                     : locale.cpp.obj (.text:_ZNKSt3__28time_getIcNS_19istreambuf_iteratorIcNS_11char_traitsIcEEEEE11do_get_dateES4_S4_RNS_8ios_baseERjP2tm)
                  1182b700    000000a0                     : locale.cpp.obj (.text:_ZNKSt3__28time_getIcNS_19istreambuf_iteratorIcNS_11char_traitsIcEEEEE11do_get_yearES4_S4_RNS_8ios_baseERjP2tm)
                  1182b7a0    000000a0                     : locale.cpp.obj (.text:_ZNKSt3__28time_getIcNS_19istreambuf_iteratorIcNS_11char_traitsIcEEEEE14do_get_weekdayES4_S4_RNS_8ios_baseERjP2tm)
                  1182b840    000000a0                     : locale.cpp.obj (.text:_ZNKSt3__28time_getIcNS_19istreambuf_iteratorIcNS_11char_traitsIcEEEEE15__get_monthnameERiRS4_S4_RjRKNS_5ctypeIcEE)
                  1182b8e0    000000a0                     : locale.cpp.obj (.text:_ZNKSt3__28time_getIcNS_19istreambuf_iteratorIcNS_11char_traitsIcEEEEE16do_get_monthnameES4_S4_RNS_8ios_baseERjP2tm)
                  1182b980    000000a0                     : locale.cpp.obj (.text:_ZNKSt3__28time_getIwNS_19istreambuf_iteratorIwNS_11char_traitsIwEEEEE11do_get_dateES4_S4_RNS_8ios_baseERjP2tm)
                  1182ba20    000000a0                     : locale.cpp.obj (.text:_ZNKSt3__28time_getIwNS_19istreambuf_iteratorIwNS_11char_traitsIwEEEEE11do_get_yearES4_S4_RNS_8ios_baseERjP2tm)
                  1182bac0    000000a0                     : locale.cpp.obj (.text:_ZNKSt3__28time_getIwNS_19istreambuf_iteratorIwNS_11char_traitsIwEEEEE14do_get_weekdayES4_S4_RNS_8ios_baseERjP2tm)
                  1182bb60    000000a0                     : locale.cpp.obj (.text:_ZNKSt3__28time_getIwNS_19istreambuf_iteratorIwNS_11char_traitsIwEEEEE15__get_monthnameERiRS4_S4_RjRKNS_5ctypeIwEE)
                  1182bc00    000000a0                     : locale.cpp.obj (.text:_ZNKSt3__28time_getIwNS_19istreambuf_iteratorIwNS_11char_traitsIwEEEEE16do_get_monthnameES4_S4_RNS_8ios_baseERjP2tm)
                  1182bca0    000000a0                     : iostream.cpp.obj (.text:_ZNSt3__210__stdinbufIwE5imbueERKNS_6localeE)
                  1182bd40    000000a0                     : iostream.cpp.obj (.text:_ZNSt3__211__stdoutbufIcEC1EP7__sFILEPi)
                  1182bde0    000000a0                     : iostream.cpp.obj (.text:_ZNSt3__211__stdoutbufIwEC1EP7__sFILEPi)
                  1182be80    000000a0                     : locale.cpp.obj (.text:_ZNSt3__214__num_put_base18__identify_paddingEPcS1_RKNS_8ios_baseE)
                  1182bf20    000000a0                     : locale.cpp.obj (.text:_ZNSt3__214__split_bufferIPNS_6locale5facetERNS_15__sso_allocatorIS3_Lj28EEEED1Ev)
                  1182bfc0    000000a0                     : locale.cpp.obj (.text:_ZNSt3__26__clocEv)
                  1182c060    000000a0                     : locale.cpp.obj (.text:_ZNSt3__26locale2id5__getEv)
                  1182c100    000000a0                     : locale.cpp.obj (.text:_ZNSt3__26locale7classicEv)
                  1182c1a0    000000a0                     : locale.cpp.obj (.text:_ZNSt3__26locale8__globalEv)
                  1182c240    000000a0                     : fopen.c.obj (.text:__TI_cleanup)
                  1182c2e0    000000a0                     : fflush.c.obj (.text:__TI_doflush)
                  1182c380    000000a0                     : _io_perm.c.obj (.text:__TI_rd_ok)
                  1182c420    000000a0                     : remu.asm.obj (.text:__remu)
                  1182c4c0    000000a0                     : _printfi.c.obj (.text:_ecpy)
                  1182c560    000000a0                     : getdevice.c.obj (.text:finddevice)
                  1182c600    000000a0                     : none_mb.c.obj (.text:mbtowc)
                  1182c6a0    000000a0                     : memcpy64.asm.obj (.text:memcpy)
                  1182c740    000000a0                     : memmov.c.obj (.text:memmove)
                  1182c7e0    000000a0                     : memory.c.obj (.text:minsert)
                  1182c880    000000a0                     : vasprintf.c.obj (.text:vasprintf)
                  1182c920    00000080                     : locale.cpp.obj (.text:_ZNKSt3__210__time_put8__do_putEPcRS1_PK2tmcc)
                  1182c9a0    00000080                     : locale.cpp.obj (.text:_ZNKSt3__25ctypeIcE10do_tolowerEc)
                  1182ca20    00000080                     : locale.cpp.obj (.text:_ZNKSt3__25ctypeIcE10do_toupperEc)
                  1182caa0    00000080                     : locale.cpp.obj (.text:_ZNKSt3__25ctypeIcE8do_widenEPKcS3_Pc)
                  1182cb20    00000080                     : locale.cpp.obj (.text:_ZNKSt3__25ctypeIwE10do_scan_isEhPKwS3_)
                  1182cba0    00000080                     : locale.cpp.obj (.text:_ZNKSt3__25ctypeIwE10do_tolowerEw)
                  1182cc20    00000080                     : locale.cpp.obj (.text:_ZNKSt3__25ctypeIwE10do_toupperEw)
                  1182cca0    00000080                     : locale.cpp.obj (.text:_ZNKSt3__25ctypeIwE11do_scan_notEhPKwS3_)
                  1182cd20    00000080                     : locale.cpp.obj (.text:_ZNKSt3__27codecvtIDiciE5do_inERiPKcS4_RS4_PDiS6_RS6_)
                  1182cda0    00000080                     : locale.cpp.obj (.text:_ZNKSt3__27codecvtIDiciE6do_outERiPKDiS4_RS4_PcS6_RS6_)
                  1182ce20    00000080                     : locale.cpp.obj (.text:_ZNKSt3__27codecvtIDsciE5do_inERiPKcS4_RS4_PDsS6_RS6_)
                  1182cea0    00000080                     : locale.cpp.obj (.text:_ZNKSt3__27codecvtIDsciE6do_outERiPKDsS4_RS4_PcS6_RS6_)
                  1182cf20    00000080                     : locale.cpp.obj (.text:_ZNKSt3__27codecvtIwciE11do_encodingEv)
                  1182cfa0    00000080                     : locale.cpp.obj (.text:_ZNKSt3__27collateIwE7do_hashEPKwS3_)
                  1182d020    00000080                     : iostream.cpp.obj (.text:_ZNSt3__210__stdinbufIcEC1EP7__sFILEPi)
                  1182d0a0    00000080                     : iostream.cpp.obj (.text:_ZNSt3__210__stdinbufIwEC1EP7__sFILEPi)
                  1182d120    00000080                     : iostream.cpp.obj (.text:_ZNSt3__211__stdoutbufIcE5imbueERKNS_6localeE)
                  1182d1a0    00000080                     : iostream.cpp.obj (.text:_ZNSt3__211__stdoutbufIwE5imbueERKNS_6localeE)
                  1182d220    00000080                     : locale.cpp.obj (.text:_ZNSt3__219istreambuf_iteratorIcNS_11char_traitsIcEEEppEv)
                  1182d2a0    00000080                     : locale.cpp.obj (.text:_ZNSt3__219istreambuf_iteratorIwNS_11char_traitsIwEEEppEv)
                  1182d320    00000080                     : locale.cpp.obj (.text:_ZNSt3__219ostreambuf_iteratorIcNS_11char_traitsIcEEEaSEc)
                  1182d3a0    00000080                     : locale.cpp.obj (.text:_ZNSt3__219ostreambuf_iteratorIwNS_11char_traitsIwEEEaSEw)
                  1182d420    00000080                     : ios.cpp.obj (.text:_ZNSt3__28ios_base16__call_callbacksENS0_5eventE)
                  1182d4a0    00000080                     : ios.cpp.obj (.text:_ZNSt3__28ios_baseD1Ev)
                  1182d520    00000080                     : locale.cpp.obj (.text:_ZNSt3__28numpunctIcEC1Ej)
                  1182d5a0    00000080                     : locale.cpp.obj (.text:_ZNSt3__28numpunctIwEC1Ej)
                  1182d620    00000080                     : new.cpp.obj (.text:_Znwj)
                  1182d6a0    00000080                     : trgmsg.c.obj (.text:__TI_readmsg)
                  1182d720    00000080                     : llshift.c.obj (.text:__c6xabi_llshl)
                  1182d7a0    00000080                     : vec_newdel.c.obj (.text:__cxa_vec_dtor)
                  1182d820    00000080                     : boot.c.obj (.text:_c_int00)
                  1182d8a0    00000080                     : snprintf.c.obj (.text:_outs)
                  1182d920    00000080                     : vsnprintf.c.obj (.text:_outs)
                  1182d9a0    00000080                     : snprintf.c.obj (.text:snprintf)
                  1182da20    00000080                     : unlink.c.obj (.text:unlink)
                  1182daa0    00000080                     : vsnprintf.c.obj (.text:vsnprintf)
                  1182db20    00000080                     : none_mb.c.obj (.text:wcrtomb)
                  1182dba0    00000080                     : wmemset.c.obj (.text:wmemset)
                  1182dc20    00000060                     : locale.cpp.obj (.text:_ZNKSt3__25ctypeIwE5do_isEPKwS3_Ph)
                  1182dc80    00000060                     : locale.cpp.obj (.text:_ZNKSt3__25ctypeIwE9do_narrowEPKwS3_cPc)
                  1182dce0    00000060                     : locale.cpp.obj (.text:_ZNKSt3__28time_getIcNS_19istreambuf_iteratorIcNS_11char_traitsIcEEEEE10__get_hourERiRS4_S4_RjRKNS_5ctypeIcEE)
                  1182dd40    00000060                     : locale.cpp.obj (.text:_ZNKSt3__28time_getIcNS_19istreambuf_iteratorIcNS_11char_traitsIcEEEEE10__get_yearERiRS4_S4_RjRKNS_5ctypeIcEE)
                  1182dda0    00000060                     : locale.cpp.obj (.text:_ZNKSt3__28time_getIcNS_19istreambuf_iteratorIcNS_11char_traitsIcEEEEE11__get_monthERiRS4_S4_RjRKNS_5ctypeIcEE)
                  1182de00    00000060                     : locale.cpp.obj (.text:_ZNKSt3__28time_getIcNS_19istreambuf_iteratorIcNS_11char_traitsIcEEEEE11__get_year4ERiRS4_S4_RjRKNS_5ctypeIcEE)
                  1182de60    00000060                     : locale.cpp.obj (.text:_ZNKSt3__28time_getIcNS_19istreambuf_iteratorIcNS_11char_traitsIcEEEEE12__get_minuteERiRS4_S4_RjRKNS_5ctypeIcEE)
                  1182dec0    00000060                     : locale.cpp.obj (.text:_ZNKSt3__28time_getIcNS_19istreambuf_iteratorIcNS_11char_traitsIcEEEEE12__get_secondERiRS4_S4_RjRKNS_5ctypeIcEE)
                  1182df20    00000060                     : locale.cpp.obj (.text:_ZNKSt3__28time_getIcNS_19istreambuf_iteratorIcNS_11char_traitsIcEEEEE13__get_12_hourERiRS4_S4_RjRKNS_5ctypeIcEE)
                  1182df80    00000060                     : locale.cpp.obj (.text:_ZNKSt3__28time_getIcNS_19istreambuf_iteratorIcNS_11char_traitsIcEEEEE13__get_weekdayERiRS4_S4_RjRKNS_5ctypeIcEE)
                  1182dfe0    00000060                     : locale.cpp.obj (.text:_ZNKSt3__28time_getIcNS_19istreambuf_iteratorIcNS_11char_traitsIcEEEEE18__get_day_year_numERiRS4_S4_RjRKNS_5ctypeIcEE)
                  1182e040    00000060                     : locale.cpp.obj (.text:_ZNKSt3__28time_getIcNS_19istreambuf_iteratorIcNS_11char_traitsIcEEEEE9__get_dayERiRS4_S4_RjRKNS_5ctypeIcEE)
                  1182e0a0    00000060                     : locale.cpp.obj (.text:_ZNKSt3__28time_getIwNS_19istreambuf_iteratorIwNS_11char_traitsIwEEEEE10__get_hourERiRS4_S4_RjRKNS_5ctypeIwEE)
                  1182e100    00000060                     : locale.cpp.obj (.text:_ZNKSt3__28time_getIwNS_19istreambuf_iteratorIwNS_11char_traitsIwEEEEE10__get_yearERiRS4_S4_RjRKNS_5ctypeIwEE)
                  1182e160    00000060                     : locale.cpp.obj (.text:_ZNKSt3__28time_getIwNS_19istreambuf_iteratorIwNS_11char_traitsIwEEEEE11__get_monthERiRS4_S4_RjRKNS_5ctypeIwEE)
                  1182e1c0    00000060                     : locale.cpp.obj (.text:_ZNKSt3__28time_getIwNS_19istreambuf_iteratorIwNS_11char_traitsIwEEEEE11__get_year4ERiRS4_S4_RjRKNS_5ctypeIwEE)
                  1182e220    00000060                     : locale.cpp.obj (.text:_ZNKSt3__28time_getIwNS_19istreambuf_iteratorIwNS_11char_traitsIwEEEEE11do_get_timeES4_S4_RNS_8ios_baseERjP2tm)
                  1182e280    00000060                     : locale.cpp.obj (.text:_ZNKSt3__28time_getIwNS_19istreambuf_iteratorIwNS_11char_traitsIwEEEEE12__get_minuteERiRS4_S4_RjRKNS_5ctypeIwEE)
                  1182e2e0    00000060                     : locale.cpp.obj (.text:_ZNKSt3__28time_getIwNS_19istreambuf_iteratorIwNS_11char_traitsIwEEEEE12__get_secondERiRS4_S4_RjRKNS_5ctypeIwEE)
                  1182e340    00000060                     : locale.cpp.obj (.text:_ZNKSt3__28time_getIwNS_19istreambuf_iteratorIwNS_11char_traitsIwEEEEE13__get_12_hourERiRS4_S4_RjRKNS_5ctypeIwEE)
                  1182e3a0    00000060                     : locale.cpp.obj (.text:_ZNKSt3__28time_getIwNS_19istreambuf_iteratorIwNS_11char_traitsIwEEEEE13__get_weekdayERiRS4_S4_RjRKNS_5ctypeIwEE)
                  1182e400    00000060                     : locale.cpp.obj (.text:_ZNKSt3__28time_getIwNS_19istreambuf_iteratorIwNS_11char_traitsIwEEEEE18__get_day_year_numERiRS4_S4_RjRKNS_5ctypeIwEE)
                  1182e460    00000060                     : locale.cpp.obj (.text:_ZNKSt3__28time_getIwNS_19istreambuf_iteratorIwNS_11char_traitsIwEEEEE9__get_dayERiRS4_S4_RjRKNS_5ctypeIwEE)
                  1182e4c0    00000060                     : ios.cpp.obj (.text:_ZNKSt3__29basic_iosIcNS_11char_traitsIcEEE5widenEc)
                  1182e520    00000060                     : locale.cpp.obj (.text:_ZNSt3__210__time_putD1Ev)
                  1182e580    00000060                     : mutex.cpp.obj (.text:_ZNSt3__211__call_onceERVmPvPFvS2_E)
                  1182e5e0    00000060                     : string.cpp.obj (.text:_ZNSt3__212basic_stringIcNS_11char_traitsIcEENS_9allocatorIcEEED1Ev)
                  1182e640    00000060                     : string.cpp.obj (.text:_ZNSt3__212basic_stringIwNS_11char_traitsIwEENS_9allocatorIwEEED1Ev)
                  1182e6a0    00000060                     : ios.cpp.obj (.text:_ZNSt3__213basic_istreamIcNS_11char_traitsIcEEED2Ev)
                  1182e700    00000060                     : ios.cpp.obj (.text:_ZNSt3__213basic_istreamIwNS_11char_traitsIwEEED2Ev)
                  1182e760    00000060                     : ios.cpp.obj (.text:_ZNSt3__213basic_ostreamIcNS_11char_traitsIcEEED2Ev)
                  1182e7c0    00000060                     : ios.cpp.obj (.text:_ZNSt3__213basic_ostreamIwNS_11char_traitsIwEEED2Ev)
                  1182e820    00000060                     : ios.cpp.obj (.text:_ZNSt3__215basic_streambufIcNS_11char_traitsIcEEE5uflowEv)
                  1182e880    00000060                     : ios.cpp.obj (.text:_ZNSt3__215basic_streambufIcNS_11char_traitsIcEEEC1Ev)
                  1182e8e0    00000060                     : ios.cpp.obj (.text:_ZNSt3__215basic_streambufIwNS_11char_traitsIwEEE5uflowEv)
                  1182e940    00000060                     : ios.cpp.obj (.text:_ZNSt3__215basic_streambufIwNS_11char_traitsIwEEEC1Ev)
                  1182e9a0    00000060                     : locale.cpp.obj (.text:_ZNSt3__217__call_once_proxyINS_5tupleIJONS_34_GLOBAL__N__10_locale_cpp_a718320311__fake_bindEEEEEEvPv)
                  1182ea00    00000060     main.obj (.text:_ZNSt3__24endlIcNS_11char_traitsIcEEEERNS_13basic_ostreamIT_T0_EES7_)
                  1182ea60    00000060     rts6740_elf.lib : locale.cpp.obj (.text:_ZNSt3__25ctypeIcEC1EPKhbj)
                  1182eac0    00000060                     : locale.cpp.obj (.text:_ZNSt3__25ctypeIcED1Ev)
                  1182eb20    00000060                     : locale.cpp.obj (.text:_ZNSt3__26localeD1Ev)
                  1182eb80    00000060                     : locale.cpp.obj (.text:_ZNSt3__26vectorIPNS_6locale5facetENS_15__sso_allocatorIS3_Lj28EEEEC1Ej)
                  1182ebe0    00000060                     : locale.cpp.obj (.text:_ZNSt3__27codecvtIwciEC1Ej)
                  1182ec40    00000060                     : locale.cpp.obj (.text:_ZNSt3__27codecvtIwciED1Ev)
                  1182eca0    00000060                     : iostream.cpp.obj (.text:_ZNSt3__28ios_base4InitD1Ev)
                  1182ed00    00000060                     : ios.cpp.obj (.text:_ZNSt3__28ios_base4initEPv)
                  1182ed60    00000060                     : locale.cpp.obj (.text:_ZNSt3__28numpunctIcED1Ev)
                  1182edc0    00000060                     : locale.cpp.obj (.text:_ZNSt3__28numpunctIwED1Ev)
                  1182ee20    00000060                     : trgmsg.c.obj (.text:__TI_writemsg)
                  1182ee80    00000060                     : llshift.c.obj (.text:__c6xabi_llshru)
                  1182eee0    00000060                     : imath64.c.obj (.text:__c6xabi_remull)
                  1182ef40    00000060                     : iostream.cpp.obj (.text:__sti___12_iostream_cpp_d173592a__prio101)
                  1182efa0    00000060                     : imath64.c.obj (.text:_subcull)
                  1182f000    00000060                     : lseek.c.obj (.text:lseek)
                  1182f060    00000060                     : memccpy.c.obj (.text:memccpy)
                  1182f0c0    00000060                     : read.c.obj (.text:read)
                  1182f120    00000060                     : sscanf.c.obj (.text:sscanf)
                  1182f180    00000060                     : strcpy.c.obj (.text:strcpy)
                  1182f1e0    00000060                     : _scanfi.c.obj (.text:strrchr)
                  1182f240    00000060                     : write.c.obj (.text:write)
                  1182f2a0    00000040                     : typeinfo.c.obj (.text:_ZN10__cxxabiv117__class_type_infoD0Ev)
                  1182f2e0    00000040                     : typeinfo.c.obj (.text:_ZN10__cxxabiv120__si_class_type_infoD0Ev)
                  1182f320    00000040                     : typeinfo.c.obj (.text:_ZN10__cxxabiv121__vmi_class_type_infoD0Ev)
                  1182f360    00000040                     : locale.cpp.obj (.text:_ZNKSt3__210moneypunctIcLb0EE11do_groupingEv)
                  1182f3a0    00000040                     : locale.cpp.obj (.text:_ZNKSt3__210moneypunctIcLb0EE13do_neg_formatEv)
                  1182f3e0    00000040                     : locale.cpp.obj (.text:_ZNKSt3__210moneypunctIcLb0EE13do_pos_formatEv)
                  1182f420    00000040                     : locale.cpp.obj (.text:_ZNKSt3__210moneypunctIcLb0EE14do_curr_symbolEv)
                  1182f460    00000040                     : locale.cpp.obj (.text:_ZNKSt3__210moneypunctIcLb0EE16do_negative_signEv)
                  1182f4a0    00000040                     : locale.cpp.obj (.text:_ZNKSt3__210moneypunctIcLb0EE16do_positive_signEv)
                  1182f4e0    00000040                     : locale.cpp.obj (.text:_ZNKSt3__210moneypunctIcLb1EE11do_groupingEv)
                  1182f520    00000040                     : locale.cpp.obj (.text:_ZNKSt3__210moneypunctIcLb1EE13do_neg_formatEv)
                  1182f560    00000040                     : locale.cpp.obj (.text:_ZNKSt3__210moneypunctIcLb1EE13do_pos_formatEv)
                  1182f5a0    00000040                     : locale.cpp.obj (.text:_ZNKSt3__210moneypunctIcLb1EE14do_curr_symbolEv)
                  1182f5e0    00000040                     : locale.cpp.obj (.text:_ZNKSt3__210moneypunctIcLb1EE16do_negative_signEv)
                  1182f620    00000040                     : locale.cpp.obj (.text:_ZNKSt3__210moneypunctIcLb1EE16do_positive_signEv)
                  1182f660    00000040                     : locale.cpp.obj (.text:_ZNKSt3__210moneypunctIwLb0EE11do_groupingEv)
                  1182f6a0    00000040                     : locale.cpp.obj (.text:_ZNKSt3__210moneypunctIwLb0EE13do_neg_formatEv)
                  1182f6e0    00000040                     : locale.cpp.obj (.text:_ZNKSt3__210moneypunctIwLb0EE13do_pos_formatEv)
                  1182f720    00000040                     : locale.cpp.obj (.text:_ZNKSt3__210moneypunctIwLb0EE14do_curr_symbolEv)
                  1182f760    00000040                     : locale.cpp.obj (.text:_ZNKSt3__210moneypunctIwLb0EE16do_negative_signEv)
                  1182f7a0    00000040                     : locale.cpp.obj (.text:_ZNKSt3__210moneypunctIwLb0EE16do_positive_signEv)
                  1182f7e0    00000040                     : locale.cpp.obj (.text:_ZNKSt3__210moneypunctIwLb1EE11do_groupingEv)
                  1182f820    00000040                     : locale.cpp.obj (.text:_ZNKSt3__210moneypunctIwLb1EE13do_neg_formatEv)
                  1182f860    00000040                     : locale.cpp.obj (.text:_ZNKSt3__210moneypunctIwLb1EE13do_pos_formatEv)
                  1182f8a0    00000040                     : locale.cpp.obj (.text:_ZNKSt3__210moneypunctIwLb1EE14do_curr_symbolEv)
                  1182f8e0    00000040                     : locale.cpp.obj (.text:_ZNKSt3__210moneypunctIwLb1EE16do_negative_signEv)
                  1182f920    00000040                     : locale.cpp.obj (.text:_ZNKSt3__210moneypunctIwLb1EE16do_positive_signEv)
                  1182f960    00000040                     : string.cpp.obj (.text:_ZNKSt3__212basic_stringIcNS_11char_traitsIcEENS_9allocatorIcEEE4dataEv)
                  1182f9a0    00000040     main.obj (.text:_ZNKSt3__219ostreambuf_iteratorIcNS_11char_traitsIcEEE6failedEv)
                  1182f9e0    00000040     main.obj (.text:_ZNKSt3__25ctypeIcE5widenEc)
                  1182fa20    00000040     rts6740_elf.lib : locale.cpp.obj (.text:_ZNKSt3__25ctypeIwE5do_isEhw)
                  1182fa60    00000040                     : locale.cpp.obj (.text:_ZNKSt3__25ctypeIwE8do_widenEPKcS3_Pw)
                  1182faa0    00000040                     : locale.cpp.obj (.text:_ZNKSt3__26locale9use_facetERNS0_2idE)
                  1182fae0    00000040                     : locale.cpp.obj (.text:_ZNKSt3__27codecvtIDiciE9do_lengthERiPKcS4_j)
                  1182fb20    00000040                     : locale.cpp.obj (.text:_ZNKSt3__27codecvtIDsciE9do_lengthERiPKcS4_j)
                  1182fb60    00000040                     : locale.cpp.obj (.text:_ZNKSt3__27codecvtIcciE9do_lengthERiPKcS4_j)
                  1182fba0    00000040                     : locale.cpp.obj (.text:_ZNKSt3__27codecvtIwciE13do_max_lengthEv)
                  1182fbe0    00000040                     : locale.cpp.obj (.text:_ZNKSt3__28time_getIcNS_19istreambuf_iteratorIcNS_11char_traitsIcEEEEE11do_get_timeES4_S4_RNS_8ios_baseERjP2tm)
                  1182fc20    00000040                     : iostream.cpp.obj (.text:_ZNSt3__210__stdinbufIcED0Ev)
                  1182fc60    00000040                     : iostream.cpp.obj (.text:_ZNSt3__210__stdinbufIwED0Ev)
                  1182fca0    00000040                     : locale.cpp.obj (.text:_ZNSt3__210moneypunctIcLb0EED0Ev)
                  1182fce0    00000040                     : locale.cpp.obj (.text:_ZNSt3__210moneypunctIcLb1EED0Ev)
                  1182fd20    00000040                     : locale.cpp.obj (.text:_ZNSt3__210moneypunctIwLb0EED0Ev)
                  1182fd60    00000040                     : locale.cpp.obj (.text:_ZNSt3__210moneypunctIwLb1EED0Ev)
                  1182fda0    00000040                     : locale.cpp.obj (.text:_ZNSt3__210unique_ptrIcPFvPvEE5resetEPc)
                  1182fde0    00000040                     : locale.cpp.obj (.text:_ZNSt3__210unique_ptrIhPFvPvEE5resetEPh)
                  1182fe20    00000040                     : locale.cpp.obj (.text:_ZNSt3__210unique_ptrIwPFvPvEE5resetEPw)
                  1182fe60    00000040                     : iostream.cpp.obj (.text:_ZNSt3__211__stdoutbufIcED0Ev)
                  1182fea0    00000040                     : iostream.cpp.obj (.text:_ZNSt3__211__stdoutbufIwED0Ev)
                  1182fee0    00000040                     : string.cpp.obj (.text:_ZNSt3__211char_traitsIcE4copyEPcPKcj)
                  1182ff20    00000040                     : string.cpp.obj (.text:_ZNSt3__211char_traitsIcE4moveEPcPKcj)
                  1182ff60    00000040     main.obj (.text:_ZNSt3__211char_traitsIcE6assignEPcjc)
                  1182ffa0    00000040     rts6740_elf.lib : string.cpp.obj (.text:_ZNSt3__211char_traitsIwE4copyEPwPKwj)
                  1182ffe0    00000040                     : string.cpp.obj (.text:_ZNSt3__211char_traitsIwE4moveEPwPKwj)
                  11830020    00000040                     : string.cpp.obj (.text:_ZNSt3__212basic_stringIcNS_11char_traitsIcEENS_9allocatorIcEEE6assignEPKc)
                  11830060    00000040                     : string.cpp.obj (.text:_ZNSt3__212basic_stringIcNS_11char_traitsIcEENS_9allocatorIcEEEC1Ejc)
                  118300a0    00000040                     : string.cpp.obj (.text:_ZNSt3__212basic_stringIcNS_11char_traitsIcEENS_9allocatorIcEEEC1Ev)
                  118300e0    00000040                     : string.cpp.obj (.text:_ZNSt3__212basic_stringIwNS_11char_traitsIwEENS_9allocatorIwEEE6assignEPKw)
                  11830120    00000040                     : string.cpp.obj (.text:_ZNSt3__212basic_stringIwNS_11char_traitsIwEENS_9allocatorIwEEEC1Ev)
                  11830160    00000040                     : ios.cpp.obj (.text:_ZNSt3__213basic_istreamIcNS_11char_traitsIcEEED0Ev)
                  118301a0    00000040                     : ios.cpp.obj (.text:_ZNSt3__213basic_istreamIcNS_11char_traitsIcEEED1Ev)
                  118301e0    00000040                     : ios.cpp.obj (.text:_ZNSt3__213basic_istreamIwNS_11char_traitsIwEEED0Ev)
                  11830220    00000040                     : ios.cpp.obj (.text:_ZNSt3__213basic_istreamIwNS_11char_traitsIwEEED1Ev)
                  11830260    00000040                     : ios.cpp.obj (.text:_ZNSt3__213basic_ostreamIcNS_11char_traitsIcEEED0Ev)
                  118302a0    00000040                     : ios.cpp.obj (.text:_ZNSt3__213basic_ostreamIcNS_11char_traitsIcEEED1Ev)
                  118302e0    00000040                     : ios.cpp.obj (.text:_ZNSt3__213basic_ostreamIwNS_11char_traitsIwEEED0Ev)
                  11830320    00000040                     : ios.cpp.obj (.text:_ZNSt3__213basic_ostreamIwNS_11char_traitsIwEEED1Ev)
                  11830360    00000040                     : locale.cpp.obj (.text:_ZNSt3__214__num_get_base10__get_baseERNS_8ios_baseE)
                  118303a0    00000040                     : locale.cpp.obj (.text:_ZNSt3__214__shared_count16__release_sharedEv)
                  118303e0    00000040                     : ios.cpp.obj (.text:_ZNSt3__215basic_streambufIcNS_11char_traitsIcEEE5sgetcEv)
                  11830420    00000040                     : ios.cpp.obj (.text:_ZNSt3__215basic_streambufIcNS_11char_traitsIcEEED0Ev)
                  11830460    00000040                     : ios.cpp.obj (.text:_ZNSt3__215basic_streambufIcNS_11char_traitsIcEEED1Ev)
                  118304a0    00000040                     : ios.cpp.obj (.text:_ZNSt3__215basic_streambufIwNS_11char_traitsIwEEE5sgetcEv)
                  118304e0    00000040                     : ios.cpp.obj (.text:_ZNSt3__215basic_streambufIwNS_11char_traitsIwEEED0Ev)
                  11830520    00000040                     : ios.cpp.obj (.text:_ZNSt3__215basic_streambufIwNS_11char_traitsIwEEED1Ev)
                  11830560    00000040     main.obj (.text:_ZNSt3__219ostreambuf_iteratorIcNS_11char_traitsIcEEEC1ERNS_13basic_ostreamIcS2_EE)
                  118305a0    00000040     rts6740_elf.lib : string.cpp.obj (.text:_ZNSt3__222__compressed_pair_elemINS_12basic_stringIwNS_11char_traitsIwEENS_9allocatorIwEEE5__repELi0ELb0EEC1Ev)
                  118305e0    00000040                     : locale.cpp.obj (.text:_ZNSt3__25ctypeIcED0Ev)
                  11830620    00000040                     : locale.cpp.obj (.text:_ZNSt3__25ctypeIwED0Ev)
                  11830660    00000040                     : locale.cpp.obj (.text:_ZNSt3__26locale5__imp12make_classicEv)
                  118306a0    00000040                     : locale.cpp.obj (.text:_ZNSt3__26locale5__impD0Ev)
                  118306e0    00000040                     : locale.cpp.obj (.text:_ZNSt3__26locale5facetD0Ev)
                  11830720    00000040                     : locale.cpp.obj (.text:_ZNSt3__26localeC1Ev)
                  11830760    00000040                     : locale.cpp.obj (.text:_ZNSt3__26vectorIPNS_6locale5facetENS_15__sso_allocatorIS3_Lj28EEEE18__construct_at_endEj)
                  118307a0    00000040                     : locale.cpp.obj (.text:_ZNSt3__27codecvtIDiciED0Ev)
                  118307e0    00000040                     : locale.cpp.obj (.text:_ZNSt3__27codecvtIDsciED0Ev)
                  11830820    00000040                     : locale.cpp.obj (.text:_ZNSt3__27codecvtIcciED0Ev)
                  11830860    00000040                     : locale.cpp.obj (.text:_ZNSt3__27codecvtIwciED0Ev)
                  118308a0    00000040                     : locale.cpp.obj (.text:_ZNSt3__27collateIcED0Ev)
                  118308e0    00000040                     : locale.cpp.obj (.text:_ZNSt3__27collateIwED0Ev)
                  11830920    00000040                     : locale.cpp.obj (.text:_ZNSt3__27num_getIcNS_19istreambuf_iteratorIcNS_11char_traitsIcEEEEED0Ev)
                  11830960    00000040                     : locale.cpp.obj (.text:_ZNSt3__27num_getIwNS_19istreambuf_iteratorIwNS_11char_traitsIwEEEEED0Ev)
                  118309a0    00000040                     : locale.cpp.obj (.text:_ZNSt3__27num_putIcNS_19ostreambuf_iteratorIcNS_11char_traitsIcEEEEED0Ev)
                  118309e0    00000040                     : locale.cpp.obj (.text:_ZNSt3__27num_putIwNS_19ostreambuf_iteratorIwNS_11char_traitsIwEEEEED0Ev)
                  11830a20    00000040     main.obj (.text:_ZNSt3__28ios_base5widthEi)
                  11830a60    00000040     rts6740_elf.lib : ios.cpp.obj (.text:_ZNSt3__28ios_baseD0Ev)
                  11830aa0    00000040                     : locale.cpp.obj (.text:_ZNSt3__28messagesIcED0Ev)
                  11830ae0    00000040                     : locale.cpp.obj (.text:_ZNSt3__28messagesIwED0Ev)
                  11830b20    00000040                     : locale.cpp.obj (.text:_ZNSt3__28numpunctIcED0Ev)
                  11830b60    00000040                     : locale.cpp.obj (.text:_ZNSt3__28numpunctIwED0Ev)
                  11830ba0    00000040                     : locale.cpp.obj (.text:_ZNSt3__28time_getIcNS_19istreambuf_iteratorIcNS_11char_traitsIcEEEEED0Ev)
                  11830be0    00000040                     : locale.cpp.obj (.text:_ZNSt3__28time_getIwNS_19istreambuf_iteratorIwNS_11char_traitsIwEEEEED0Ev)
                  11830c20    00000040                     : locale.cpp.obj (.text:_ZNSt3__28time_putIcNS_19ostreambuf_iteratorIcNS_11char_traitsIcEEEEED0Ev)
                  11830c60    00000040                     : locale.cpp.obj (.text:_ZNSt3__28time_putIcNS_19ostreambuf_iteratorIcNS_11char_traitsIcEEEEED1Ev)
                  11830ca0    00000040                     : locale.cpp.obj (.text:_ZNSt3__28time_putIwNS_19ostreambuf_iteratorIwNS_11char_traitsIwEEEEED0Ev)
                  11830ce0    00000040                     : locale.cpp.obj (.text:_ZNSt3__28time_putIwNS_19ostreambuf_iteratorIwNS_11char_traitsIwEEEEED1Ev)
                  11830d20    00000040                     : ios.cpp.obj (.text:_ZNSt3__29basic_iosIcNS_11char_traitsIcEEED0Ev)
                  11830d60    00000040                     : ios.cpp.obj (.text:_ZNSt3__29basic_iosIwNS_11char_traitsIwEEED0Ev)
                  11830da0    00000040                     : locale.cpp.obj (.text:_ZNSt3__29money_getIcNS_19istreambuf_iteratorIcNS_11char_traitsIcEEEEED0Ev)
                  11830de0    00000040                     : locale.cpp.obj (.text:_ZNSt3__29money_getIwNS_19istreambuf_iteratorIwNS_11char_traitsIwEEEEED0Ev)
                  11830e20    00000040                     : locale.cpp.obj (.text:_ZNSt3__29money_putIcNS_19ostreambuf_iteratorIcNS_11char_traitsIcEEEEED0Ev)
                  11830e60    00000040                     : locale.cpp.obj (.text:_ZNSt3__29money_putIwNS_19ostreambuf_iteratorIwNS_11char_traitsIwEEEEED0Ev)
                  11830ea0    00000040     main.obj (.text:_ZNSt3__2lsINS_11char_traitsIcEEEERNS_13basic_ostreamIcT_EES6_PKc)
                  11830ee0    00000040     rts6740_elf.lib : frcmpyd_div.c.obj (.text:__TI_frcmpyd_div)
                  11830f20    00000040                     : isinf.c.obj (.text:__c6xabi_isinf)
                  11830f60    00000040                     : _printfi.c.obj (.text:__c6xabi_isnan)
                  11830fa0    00000040                     : args_main.c.obj (.text:_args_main)
                  11830fe0    00000040                     : snprintf.c.obj (.text:_outc)
                  11831020    00000040                     : vsnprintf.c.obj (.text:_outc)
                  11831060    00000040                     : asprintf.c.obj (.text:asprintf_l)
                  118310a0    00000040                     : wctype.c.obj (.text:iswlower)
                  118310e0    00000040                     : none_mb.c.obj (.text:mbrtowc_l)
                  11831120    00000040                     : locale_stdio.c.obj (.text:snprintf_l)
                  11831160    00000040                     : locale_stdio.c.obj (.text:sscanf_l)
                  118311a0    00000040                     : strlen.c.obj (.text:strlen)
                  118311e0    00000040                     : sscanf.c.obj (.text:vsscanf)
                  11831220    00000040                     : wcslen.c.obj (.text:wcslen)
                  11831260    00000020                     : locale.cpp.obj (.text:$P$F0)
                  11831280    00000020                     : locale.cpp.obj (.text:$P$F1)
                  118312a0    00000020                     : locale.cpp.obj (.text:$P$F2)
                  118312c0    00000020                     : locale.cpp.obj (.text:$P$F3)
                  118312e0    00000020                     : locale.cpp.obj (.text:$P$F4)
                  11831300    00000020                     : locale.cpp.obj (.text:$P$F5)
                  11831320    00000020                     : typeinfo.c.obj (.text:_ZN10__cxxabiv117__class_type_infoD1Ev)
                  11831340    00000020                     : typeinfo.c.obj (.text:_ZN10__cxxabiv120__si_class_type_infoD1Ev)
                  11831360    00000020                     : typeinfo.c.obj (.text:_ZN10__cxxabiv121__vmi_class_type_infoD1Ev)
                  11831380    00000020                     : locale.cpp.obj (.text:_ZN32_INTERNAL_10_locale_cpp_a7183203St3__234_GLOBAL__N__10_locale_cpp_a718320321__throw_runtime_errorERKNS_12basic_stringIcNS_11char_traitsIcEENS_9allocatorIcEEEE)
                  118313a0    00000020                     : locale.cpp.obj (.text:_ZNKSt3__210moneypunctIcLb0EE14do_frac_digitsEv)
                  118313c0    00000020                     : locale.cpp.obj (.text:_ZNKSt3__210moneypunctIcLb0EE16do_decimal_pointEv)
                  118313e0    00000020                     : locale.cpp.obj (.text:_ZNKSt3__210moneypunctIcLb0EE16do_thousands_sepEv)
                  11831400    00000020                     : locale.cpp.obj (.text:_ZNKSt3__210moneypunctIcLb1EE14do_frac_digitsEv)
                  11831420    00000020                     : locale.cpp.obj (.text:_ZNKSt3__210moneypunctIcLb1EE16do_decimal_pointEv)
                  11831440    00000020                     : locale.cpp.obj (.text:_ZNKSt3__210moneypunctIcLb1EE16do_thousands_sepEv)
                  11831460    00000020                     : locale.cpp.obj (.text:_ZNKSt3__210moneypunctIwLb0EE14do_frac_digitsEv)
                  11831480    00000020                     : locale.cpp.obj (.text:_ZNKSt3__210moneypunctIwLb0EE16do_decimal_pointEv)
                  118314a0    00000020                     : locale.cpp.obj (.text:_ZNKSt3__210moneypunctIwLb0EE16do_thousands_sepEv)
                  118314c0    00000020                     : locale.cpp.obj (.text:_ZNKSt3__210moneypunctIwLb1EE14do_frac_digitsEv)
                  118314e0    00000020                     : locale.cpp.obj (.text:_ZNKSt3__210moneypunctIwLb1EE16do_decimal_pointEv)
                  11831500    00000020                     : locale.cpp.obj (.text:_ZNKSt3__210moneypunctIwLb1EE16do_thousands_sepEv)
                  11831520    00000020                     : ios.cpp.obj (.text:_ZNKSt3__213basic_ostreamIcNS_11char_traitsIcEEE6sentrycvbEv)
                  11831540    00000020                     : vector.cpp.obj (.text:_ZNKSt3__220__vector_base_commonILb1EE20__throw_length_errorEv)
                  11831560    00000020                     : string.cpp.obj (.text:_ZNKSt3__221__basic_string_commonILb1EE20__throw_length_errorEv)
                  11831580    00000020     main.obj (.text:_ZNKSt3__222__compressed_pair_elemINS_12basic_stringIcNS_11char_traitsIcEENS_9allocatorIcEEE5__repELi0ELb0EE5__getEv)
                  118315a0    00000020     rts6740_elf.lib : string.cpp.obj (.text:_ZNKSt3__222__compressed_pair_elemINS_12basic_stringIwNS_11char_traitsIwEENS_9allocatorIwEEE5__repELi0ELb0EE5__getEv)
                  118315c0    00000020                     : locale.cpp.obj (.text:_ZNKSt3__25ctypeIcE5widenEPKcS3_Pc)
                  118315e0    00000020                     : locale.cpp.obj (.text:_ZNKSt3__25ctypeIcE6narrowEcc)
                  11831600    00000020                     : locale.cpp.obj (.text:_ZNKSt3__25ctypeIcE7toupperEc)
                  11831620    00000020                     : locale.cpp.obj (.text:_ZNKSt3__25ctypeIcE8do_widenEc)
                  11831640    00000020                     : locale.cpp.obj (.text:_ZNKSt3__25ctypeIcE9do_narrowEcc)
                  11831660    00000020                     : locale.cpp.obj (.text:_ZNKSt3__25ctypeIwE2isEhw)
                  11831680    00000020                     : locale.cpp.obj (.text:_ZNKSt3__25ctypeIwE5widenEPKcS3_Pw)
                  118316a0    00000020                     : locale.cpp.obj (.text:_ZNKSt3__25ctypeIwE5widenEc)
                  118316c0    00000020                     : locale.cpp.obj (.text:_ZNKSt3__25ctypeIwE8do_widenEc)
                  118316e0    00000020                     : locale.cpp.obj (.text:_ZNKSt3__25ctypeIwE9do_narrowEwc)
                  11831700    00000020                     : locale.cpp.obj (.text:_ZNKSt3__26locale5__imp9use_facetEl)
                  11831720    00000020                     : locale.cpp.obj (.text:_ZNKSt3__26vectorIPNS_6locale5facetENS_15__sso_allocatorIS3_Lj28EEEE8max_sizeEv)
                  11831740    00000020                     : locale.cpp.obj (.text:_ZNKSt3__27codecvtIDiciE10do_unshiftERiPcS3_RS3_)
                  11831760    00000020                     : locale.cpp.obj (.text:_ZNKSt3__27codecvtIDiciE11do_encodingEv)
                  11831780    00000020                     : locale.cpp.obj (.text:_ZNKSt3__27codecvtIDiciE13do_max_lengthEv)
                  118317a0    00000020                     : locale.cpp.obj (.text:_ZNKSt3__27codecvtIDiciE16do_always_noconvEv)
                  118317c0    00000020                     : locale.cpp.obj (.text:_ZNKSt3__27codecvtIDsciE10do_unshiftERiPcS3_RS3_)
                  118317e0    00000020                     : locale.cpp.obj (.text:_ZNKSt3__27codecvtIDsciE11do_encodingEv)
                  11831800    00000020                     : locale.cpp.obj (.text:_ZNKSt3__27codecvtIDsciE13do_max_lengthEv)
                  11831820    00000020                     : locale.cpp.obj (.text:_ZNKSt3__27codecvtIDsciE16do_always_noconvEv)
                  11831840    00000020                     : locale.cpp.obj (.text:_ZNKSt3__27codecvtIcciE10do_unshiftERiPcS3_RS3_)
                  11831860    00000020                     : locale.cpp.obj (.text:_ZNKSt3__27codecvtIcciE11do_encodingEv)
                  11831880    00000020                     : locale.cpp.obj (.text:_ZNKSt3__27codecvtIcciE13do_max_lengthEv)
                  118318a0    00000020                     : locale.cpp.obj (.text:_ZNKSt3__27codecvtIcciE16do_always_noconvEv)
                  118318c0    00000020                     : iostream.cpp.obj (.text:_ZNKSt3__27codecvtIcciE3outERiPKcS4_RS4_PcS6_RS6_)
                  118318e0    00000020                     : locale.cpp.obj (.text:_ZNKSt3__27codecvtIcciE5do_inERiPKcS4_RS4_PcS6_RS6_)
                  11831900    00000020                     : locale.cpp.obj (.text:_ZNKSt3__27codecvtIcciE6do_outERiPKcS4_RS4_PcS6_RS6_)
                  11831920    00000020                     : iostream.cpp.obj (.text:_ZNKSt3__27codecvtIwciE13always_noconvEv)
                  11831940    00000020                     : locale.cpp.obj (.text:_ZNKSt3__27codecvtIwciE16do_always_noconvEv)
                  11831960    00000020                     : iostream.cpp.obj (.text:_ZNKSt3__27codecvtIwciE3outERiPKwS4_RS4_PcS6_RS6_)
                  11831980    00000020                     : locale.cpp.obj (.text:_ZNKSt3__27num_getIcNS_19istreambuf_iteratorIcNS_11char_traitsIcEEEEE6do_getES4_S4_RNS_8ios_baseERjRd)
                  118319a0    00000020                     : locale.cpp.obj (.text:_ZNKSt3__27num_getIcNS_19istreambuf_iteratorIcNS_11char_traitsIcEEEEE6do_getES4_S4_RNS_8ios_baseERjRe)
                  118319c0    00000020                     : locale.cpp.obj (.text:_ZNKSt3__27num_getIcNS_19istreambuf_iteratorIcNS_11char_traitsIcEEEEE6do_getES4_S4_RNS_8ios_baseERjRf)
                  118319e0    00000020                     : locale.cpp.obj (.text:_ZNKSt3__27num_getIcNS_19istreambuf_iteratorIcNS_11char_traitsIcEEEEE6do_getES4_S4_RNS_8ios_baseERjRl)
                  11831a00    00000020                     : locale.cpp.obj (.text:_ZNKSt3__27num_getIcNS_19istreambuf_iteratorIcNS_11char_traitsIcEEEEE6do_getES4_S4_RNS_8ios_baseERjRm)
                  11831a20    00000020                     : locale.cpp.obj (.text:_ZNKSt3__27num_getIcNS_19istreambuf_iteratorIcNS_11char_traitsIcEEEEE6do_getES4_S4_RNS_8ios_baseERjRt)
                  11831a40    00000020                     : locale.cpp.obj (.text:_ZNKSt3__27num_getIcNS_19istreambuf_iteratorIcNS_11char_traitsIcEEEEE6do_getES4_S4_RNS_8ios_baseERjRx)
                  11831a60    00000020                     : locale.cpp.obj (.text:_ZNKSt3__27num_getIcNS_19istreambuf_iteratorIcNS_11char_traitsIcEEEEE6do_getES4_S4_RNS_8ios_baseERjRy)
                  11831a80    00000020                     : locale.cpp.obj (.text:_ZNKSt3__27num_getIcNS_19istreambuf_iteratorIcNS_11char_traitsIcEEEEE6do_getES4_S4_RNS_8ios_baseERjS8_)
                  11831aa0    00000020                     : locale.cpp.obj (.text:_ZNKSt3__27num_getIwNS_19istreambuf_iteratorIwNS_11char_traitsIwEEEEE6do_getES4_S4_RNS_8ios_baseERjRd)
                  11831ac0    00000020                     : locale.cpp.obj (.text:_ZNKSt3__27num_getIwNS_19istreambuf_iteratorIwNS_11char_traitsIwEEEEE6do_getES4_S4_RNS_8ios_baseERjRe)
                  11831ae0    00000020                     : locale.cpp.obj (.text:_ZNKSt3__27num_getIwNS_19istreambuf_iteratorIwNS_11char_traitsIwEEEEE6do_getES4_S4_RNS_8ios_baseERjRf)
                  11831b00    00000020                     : locale.cpp.obj (.text:_ZNKSt3__27num_getIwNS_19istreambuf_iteratorIwNS_11char_traitsIwEEEEE6do_getES4_S4_RNS_8ios_baseERjRl)
                  11831b20    00000020                     : locale.cpp.obj (.text:_ZNKSt3__27num_getIwNS_19istreambuf_iteratorIwNS_11char_traitsIwEEEEE6do_getES4_S4_RNS_8ios_baseERjRm)
                  11831b40    00000020                     : locale.cpp.obj (.text:_ZNKSt3__27num_getIwNS_19istreambuf_iteratorIwNS_11char_traitsIwEEEEE6do_getES4_S4_RNS_8ios_baseERjRt)
                  11831b60    00000020                     : locale.cpp.obj (.text:_ZNKSt3__27num_getIwNS_19istreambuf_iteratorIwNS_11char_traitsIwEEEEE6do_getES4_S4_RNS_8ios_baseERjRx)
                  11831b80    00000020                     : locale.cpp.obj (.text:_ZNKSt3__27num_getIwNS_19istreambuf_iteratorIwNS_11char_traitsIwEEEEE6do_getES4_S4_RNS_8ios_baseERjRy)
                  11831ba0    00000020                     : locale.cpp.obj (.text:_ZNKSt3__27num_getIwNS_19istreambuf_iteratorIwNS_11char_traitsIwEEEEE6do_getES4_S4_RNS_8ios_baseERjS8_)
                  11831bc0    00000020     main.obj (.text:_ZNKSt3__28ios_base5flagsEv)
                  11831be0    00000020     main.obj (.text:_ZNKSt3__28ios_base5widthEv)
                  11831c00    00000020     rts6740_elf.lib : ios.cpp.obj (.text:_ZNKSt3__28ios_base6getlocEv)
                  11831c20    00000020                     : locale.cpp.obj (.text:_ZNKSt3__28messagesIcE6do_getEiiiRKNS_12basic_stringIcNS_11char_traitsIcEENS_9allocatorIcEEEE)
                  11831c40    00000020                     : locale.cpp.obj (.text:_ZNKSt3__28messagesIcE7do_openERKNS_12basic_stringIcNS_11char_traitsIcEENS_9allocatorIcEEEERKNS_6localeE)
                  11831c60    00000020                     : locale.cpp.obj (.text:_ZNKSt3__28messagesIcE8do_closeEi)
                  11831c80    00000020                     : locale.cpp.obj (.text:_ZNKSt3__28messagesIwE6do_getEiiiRKNS_12basic_stringIwNS_11char_traitsIwEENS_9allocatorIwEEEE)
                  11831ca0    00000020                     : locale.cpp.obj (.text:_ZNKSt3__28messagesIwE7do_openERKNS_12basic_stringIcNS_11char_traitsIcEENS_9allocatorIcEEEERKNS_6localeE)
                  11831cc0    00000020                     : locale.cpp.obj (.text:_ZNKSt3__28messagesIwE8do_closeEi)
                  11831ce0    00000020                     : locale.cpp.obj (.text:_ZNKSt3__28numpunctIcE11do_groupingEv)
                  11831d00    00000020                     : locale.cpp.obj (.text:_ZNKSt3__28numpunctIcE13thousands_sepEv)
                  11831d20    00000020                     : locale.cpp.obj (.text:_ZNKSt3__28numpunctIcE16do_decimal_pointEv)
                  11831d40    00000020                     : locale.cpp.obj (.text:_ZNKSt3__28numpunctIcE16do_thousands_sepEv)
                  11831d60    00000020                     : locale.cpp.obj (.text:_ZNKSt3__28numpunctIcE8groupingEv)
                  11831d80    00000020                     : locale.cpp.obj (.text:_ZNKSt3__28numpunctIcE9falsenameEv)
                  11831da0    00000020                     : locale.cpp.obj (.text:_ZNKSt3__28numpunctIwE11do_groupingEv)
                  11831dc0    00000020                     : locale.cpp.obj (.text:_ZNKSt3__28numpunctIwE13thousands_sepEv)
                  11831de0    00000020                     : locale.cpp.obj (.text:_ZNKSt3__28numpunctIwE16do_decimal_pointEv)
                  11831e00    00000020                     : locale.cpp.obj (.text:_ZNKSt3__28numpunctIwE16do_thousands_sepEv)
                  11831e20    00000020                     : locale.cpp.obj (.text:_ZNKSt3__28numpunctIwE8groupingEv)
                  11831e40    00000020                     : locale.cpp.obj (.text:_ZNKSt3__28numpunctIwE9falsenameEv)
                  11831e60    00000020                     : locale.cpp.obj (.text:_ZNKSt3__28time_getIcNS_19istreambuf_iteratorIcNS_11char_traitsIcEEEEE13do_date_orderEv)
                  11831e80    00000020                     : locale.cpp.obj (.text:_ZNKSt3__28time_getIwNS_19istreambuf_iteratorIwNS_11char_traitsIwEEEEE13do_date_orderEv)
                  11831ea0    00000020                     : ios.cpp.obj (.text:_ZNKSt3__29basic_iosIcNS_11char_traitsIcEEE5rdbufEv)
                  11831ec0    00000020                     : iostream.cpp.obj (.text:_ZNSt3__210__stdinbufIcE5uflowEv)
                  11831ee0    00000020                     : iostream.cpp.obj (.text:_ZNSt3__210__stdinbufIcE9underflowEv)
                  11831f00    00000020                     : iostream.cpp.obj (.text:_ZNSt3__210__stdinbufIcED1Ev)
                  11831f20    00000020                     : iostream.cpp.obj (.text:_ZNSt3__210__stdinbufIwE5uflowEv)
                  11831f40    00000020                     : iostream.cpp.obj (.text:_ZNSt3__210__stdinbufIwE9underflowEv)
                  11831f60    00000020                     : iostream.cpp.obj (.text:_ZNSt3__210__stdinbufIwED1Ev)
                  11831f80    00000020                     : locale.cpp.obj (.text:_ZNSt3__210moneypunctIcLb0EED1Ev)
                  11831fa0    00000020                     : locale.cpp.obj (.text:_ZNSt3__210moneypunctIcLb1EED1Ev)
                  11831fc0    00000020                     : locale.cpp.obj (.text:_ZNSt3__210moneypunctIwLb0EED1Ev)
                  11831fe0    00000020                     : locale.cpp.obj (.text:_ZNSt3__210moneypunctIwLb1EED1Ev)
                  11832000    00000020                     : iostream.cpp.obj (.text:_ZNSt3__211__stdoutbufIcED1Ev)
                  11832020    00000020                     : iostream.cpp.obj (.text:_ZNSt3__211__stdoutbufIwED1Ev)
                  11832040    00000020     main.obj (.text:_ZNSt3__211char_traitsIcE11to_int_typeEc)
                  11832060    00000020     main.obj (.text:_ZNSt3__211char_traitsIcE6assignERcRKc)
                  11832080    00000020     main.obj (.text:_ZNSt3__211char_traitsIcE6lengthEPKc)
                  118320a0    00000020     rts6740_elf.lib : string.cpp.obj (.text:_ZNSt3__211char_traitsIwE6assignERwRKw)
                  118320c0    00000020                     : string.cpp.obj (.text:_ZNSt3__211char_traitsIwE6lengthEPKw)
                  118320e0    00000020                     : locale.cpp.obj (.text:_ZNSt3__212__do_nothingEPv)
                  11832100    00000020                     : ios.cpp.obj (.text:_ZNSt3__213basic_ostreamIcNS_11char_traitsIcEEElsEPFRS3_S4_E)
                  11832120    00000020                     : memory.cpp.obj (.text:_ZNSt3__214__shared_countD0Ev)
                  11832140    00000020                     : memory.cpp.obj (.text:_ZNSt3__214__shared_countD1Ev)
                  11832160    00000020                     : ios.cpp.obj (.text:_ZNSt3__215basic_streambufIcNS_11char_traitsIcEEE4syncEv)
                  11832180    00000020                     : ios.cpp.obj (.text:_ZNSt3__215basic_streambufIcNS_11char_traitsIcEEE5imbueERKNS_6localeE)
                  118321a0    00000020                     : ios.cpp.obj (.text:_ZNSt3__215basic_streambufIcNS_11char_traitsIcEEE5sputnEPKci)
                  118321c0    00000020                     : ios.cpp.obj (.text:_ZNSt3__215basic_streambufIcNS_11char_traitsIcEEE6setbufEPci)
                  118321e0    00000020                     : ios.cpp.obj (.text:_ZNSt3__215basic_streambufIcNS_11char_traitsIcEEE7seekoffExNS_8ios_base7seekdirEj)
                  11832200    00000020                     : ios.cpp.obj (.text:_ZNSt3__215basic_streambufIcNS_11char_traitsIcEEE7seekposENS_4fposIiEEj)
                  11832220    00000020                     : ios.cpp.obj (.text:_ZNSt3__215basic_streambufIcNS_11char_traitsIcEEE8overflowEi)
                  11832240    00000020                     : ios.cpp.obj (.text:_ZNSt3__215basic_streambufIcNS_11char_traitsIcEEE9pbackfailEi)
                  11832260    00000020                     : ios.cpp.obj (.text:_ZNSt3__215basic_streambufIcNS_11char_traitsIcEEE9showmanycEv)
                  11832280    00000020                     : ios.cpp.obj (.text:_ZNSt3__215basic_streambufIcNS_11char_traitsIcEEE9underflowEv)
                  118322a0    00000020                     : ios.cpp.obj (.text:_ZNSt3__215basic_streambufIcNS_11char_traitsIcEEEC2Ev)
                  118322c0    00000020                     : ios.cpp.obj (.text:_ZNSt3__215basic_streambufIcNS_11char_traitsIcEEED2Ev)
                  118322e0    00000020                     : ios.cpp.obj (.text:_ZNSt3__215basic_streambufIwNS_11char_traitsIwEEE4syncEv)
                  11832300    00000020                     : ios.cpp.obj (.text:_ZNSt3__215basic_streambufIwNS_11char_traitsIwEEE5imbueERKNS_6localeE)
                  11832320    00000020                     : ios.cpp.obj (.text:_ZNSt3__215basic_streambufIwNS_11char_traitsIwEEE6setbufEPwi)
                  11832340    00000020                     : ios.cpp.obj (.text:_ZNSt3__215basic_streambufIwNS_11char_traitsIwEEE7seekoffExNS_8ios_base7seekdirEj)
                  11832360    00000020                     : ios.cpp.obj (.text:_ZNSt3__215basic_streambufIwNS_11char_traitsIwEEE7seekposENS_4fposIiEEj)
                  11832380    00000020                     : ios.cpp.obj (.text:_ZNSt3__215basic_streambufIwNS_11char_traitsIwEEE8overflowEi)
                  118323a0    00000020                     : ios.cpp.obj (.text:_ZNSt3__215basic_streambufIwNS_11char_traitsIwEEE9pbackfailEi)
                  118323c0    00000020                     : ios.cpp.obj (.text:_ZNSt3__215basic_streambufIwNS_11char_traitsIwEEE9showmanycEv)
                  118323e0    00000020                     : ios.cpp.obj (.text:_ZNSt3__215basic_streambufIwNS_11char_traitsIwEEE9underflowEv)
                  11832400    00000020                     : ios.cpp.obj (.text:_ZNSt3__215basic_streambufIwNS_11char_traitsIwEEEC2Ev)
                  11832420    00000020                     : ios.cpp.obj (.text:_ZNSt3__215basic_streambufIwNS_11char_traitsIwEEED2Ev)
                  11832440    00000020     main.obj (.text:_ZNSt3__220__throw_length_errorEPKc)
                  11832460    00000020     rts6740_elf.lib : locale.cpp.obj (.text:_ZNSt3__221__throw_runtime_errorEPKc)
                  11832480    00000020     main.obj (.text:_ZNSt3__222__compressed_pair_elemINS_12basic_stringIcNS_11char_traitsIcEENS_9allocatorIcEEE5__repELi0ELb0EE5__getEv)
                  118324a0    00000020     main.obj (.text:_ZNSt3__222__compressed_pair_elemINS_12basic_stringIcNS_11char_traitsIcEENS_9allocatorIcEEE5__repELi0ELb0EEC1Ev)
                  118324c0    00000020     main.obj (.text:_ZNSt3__222__compressed_pair_elemINS_12basic_stringIcNS_11char_traitsIcEENS_9allocatorIcEEE5__repELi0ELb0EEC2Ev)
                  118324e0    00000020     rts6740_elf.lib : string.cpp.obj (.text:_ZNSt3__222__compressed_pair_elemINS_12basic_stringIwNS_11char_traitsIwEENS_9allocatorIwEEE5__repELi0ELb0EE5__getEv)
                  11832500    00000020                     : string.cpp.obj (.text:_ZNSt3__222__compressed_pair_elemINS_12basic_stringIwNS_11char_traitsIwEENS_9allocatorIwEEE5__repELi0ELb0EEC2Ev)
                  11832520    00000020                     : string.cpp.obj (.text:_ZNSt3__222__compressed_pair_elemINS_9allocatorIcEELi1ELb1EEC1IS2_vEEOT_)
                  11832540    00000020                     : string.cpp.obj (.text:_ZNSt3__222__compressed_pair_elemINS_9allocatorIcEELi1ELb1EEC2IS2_vEEOT_)
                  11832560    00000020                     : string.cpp.obj (.text:_ZNSt3__222__compressed_pair_elemINS_9allocatorIwEELi1ELb1EEC1IS2_vEEOT_)
                  11832580    00000020                     : string.cpp.obj (.text:_ZNSt3__222__compressed_pair_elemINS_9allocatorIwEELi1ELb1EEC2IS2_vEEOT_)
                  118325a0    00000020                     : locale.cpp.obj (.text:_ZNSt3__25ctypeIcE13classic_tableEv)
                  118325c0    00000020                     : locale.cpp.obj (.text:_ZNSt3__25ctypeIwED1Ev)
                  118325e0    00000020                     : locale.cpp.obj (.text:_ZNSt3__26locale2id6__initEv)
                  11832600    00000020                     : locale.cpp.obj (.text:_ZNSt3__26locale5__imp11make_globalEv)
                  11832620    00000020                     : locale.cpp.obj (.text:_ZNSt3__26locale5facet16__on_zero_sharedEv)
                  11832640    00000020                     : locale.cpp.obj (.text:_ZNSt3__26locale5facetD1Ev)
                  11832660    00000020                     : locale.cpp.obj (.text:_ZNSt3__26localeC1ERKS0_)
                  11832680    00000020                     : locale.cpp.obj (.text:_ZNSt3__27codecvtIDiciED1Ev)
                  118326a0    00000020                     : locale.cpp.obj (.text:_ZNSt3__27codecvtIDsciED1Ev)
                  118326c0    00000020                     : locale.cpp.obj (.text:_ZNSt3__27codecvtIcciED1Ev)
                  118326e0    00000020                     : locale.cpp.obj (.text:_ZNSt3__27collateIcED1Ev)
                  11832700    00000020                     : locale.cpp.obj (.text:_ZNSt3__27collateIwED1Ev)
                  11832720    00000020                     : locale.cpp.obj (.text:_ZNSt3__27num_getIcNS_19istreambuf_iteratorIcNS_11char_traitsIcEEEEED1Ev)
                  11832740    00000020                     : locale.cpp.obj (.text:_ZNSt3__27num_getIwNS_19istreambuf_iteratorIwNS_11char_traitsIwEEEEED1Ev)
                  11832760    00000020                     : locale.cpp.obj (.text:_ZNSt3__27num_putIcNS_19ostreambuf_iteratorIcNS_11char_traitsIcEEEEED1Ev)
                  11832780    00000020                     : locale.cpp.obj (.text:_ZNSt3__27num_putIwNS_19ostreambuf_iteratorIwNS_11char_traitsIwEEEEED1Ev)
                  118327a0    00000020                     : ios.cpp.obj (.text:_ZNSt3__28ios_base5clearEj)
                  118327c0    00000020                     : locale.cpp.obj (.text:_ZNSt3__28messagesIcED1Ev)
                  118327e0    00000020                     : locale.cpp.obj (.text:_ZNSt3__28messagesIwED1Ev)
                  11832800    00000020                     : locale.cpp.obj (.text:_ZNSt3__28time_getIcNS_19istreambuf_iteratorIcNS_11char_traitsIcEEEEED1Ev)
                  11832820    00000020                     : locale.cpp.obj (.text:_ZNSt3__28time_getIwNS_19istreambuf_iteratorIwNS_11char_traitsIwEEEEED1Ev)
                  11832840    00000020                     : ios.cpp.obj (.text:_ZNSt3__29basic_iosIcNS_11char_traitsIcEEE8setstateEj)
                  11832860    00000020                     : ios.cpp.obj (.text:_ZNSt3__29basic_iosIcNS_11char_traitsIcEEED1Ev)
                  11832880    00000020                     : ios.cpp.obj (.text:_ZNSt3__29basic_iosIcNS_11char_traitsIcEEED2Ev)
                  118328a0    00000020                     : ios.cpp.obj (.text:_ZNSt3__29basic_iosIwNS_11char_traitsIwEEED1Ev)
                  118328c0    00000020                     : ios.cpp.obj (.text:_ZNSt3__29basic_iosIwNS_11char_traitsIwEEED2Ev)
                  118328e0    00000020                     : locale.cpp.obj (.text:_ZNSt3__29money_getIcNS_19istreambuf_iteratorIcNS_11char_traitsIcEEEEED1Ev)
                  11832900    00000020                     : locale.cpp.obj (.text:_ZNSt3__29money_getIwNS_19istreambuf_iteratorIwNS_11char_traitsIwEEEEED1Ev)
                  11832920    00000020                     : locale.cpp.obj (.text:_ZNSt3__29money_putIcNS_19ostreambuf_iteratorIcNS_11char_traitsIcEEEEED1Ev)
                  11832940    00000020                     : locale.cpp.obj (.text:_ZNSt3__29money_putIwNS_19ostreambuf_iteratorIwNS_11char_traitsIwEEEEED1Ev)
                  11832960    00000020                     : stdlib_typeinfo.cpp.obj (.text:_ZNSt9type_infoD1Ev)
                  11832980    00000020                     : exception.cpp.obj (.text:_ZSt18uncaught_exceptionv)
                  118329a0    00000020                     : ios.cpp.obj (.text:_ZTv0_n12_NSt3__213basic_istreamIcNS_11char_traitsIcEEED0Ev)
                  118329c0    00000020                     : ios.cpp.obj (.text:_ZTv0_n12_NSt3__213basic_istreamIcNS_11char_traitsIcEEED1Ev)
                  118329e0    00000020                     : ios.cpp.obj (.text:_ZTv0_n12_NSt3__213basic_istreamIwNS_11char_traitsIwEEED0Ev)
                  11832a00    00000020                     : ios.cpp.obj (.text:_ZTv0_n12_NSt3__213basic_istreamIwNS_11char_traitsIwEEED1Ev)
                  11832a20    00000020                     : ios.cpp.obj (.text:_ZTv0_n12_NSt3__213basic_ostreamIcNS_11char_traitsIcEEED0Ev)
                  11832a40    00000020                     : ios.cpp.obj (.text:_ZTv0_n12_NSt3__213basic_ostreamIcNS_11char_traitsIcEEED1Ev)
                  11832a60    00000020                     : ios.cpp.obj (.text:_ZTv0_n12_NSt3__213basic_ostreamIwNS_11char_traitsIwEEED0Ev)
                  11832a80    00000020                     : ios.cpp.obj (.text:_ZTv0_n12_NSt3__213basic_ostreamIwNS_11char_traitsIwEEED1Ev)
                  11832aa0    00000020                     : locale.cpp.obj (.text:_ZZNKSt3__27num_putIcNS_19ostreambuf_iteratorIcNS_11char_traitsIcEEEEE6do_putES4_RNS_8ios_baseEcdENUlPvE0_4_FUNES8_)
                  11832ac0    00000020                     : locale.cpp.obj (.text:_ZZNKSt3__27num_putIcNS_19ostreambuf_iteratorIcNS_11char_traitsIcEEEEE6do_putES4_RNS_8ios_baseEcdENUlPvE_4_FUNES8_)
                  11832ae0    00000020                     : locale.cpp.obj (.text:_ZZNKSt3__27num_putIcNS_19ostreambuf_iteratorIcNS_11char_traitsIcEEEEE6do_putES4_RNS_8ios_baseEceENUlPvE0_4_FUNES8_)
                  11832b00    00000020                     : locale.cpp.obj (.text:_ZZNKSt3__27num_putIcNS_19ostreambuf_iteratorIcNS_11char_traitsIcEEEEE6do_putES4_RNS_8ios_baseEceENUlPvE_4_FUNES8_)
                  11832b20    00000020                     : locale.cpp.obj (.text:_ZZNKSt3__27num_putIwNS_19ostreambuf_iteratorIwNS_11char_traitsIwEEEEE6do_putES4_RNS_8ios_baseEwdENUlPvE0_4_FUNES8_)
                  11832b40    00000020                     : locale.cpp.obj (.text:_ZZNKSt3__27num_putIwNS_19ostreambuf_iteratorIwNS_11char_traitsIwEEEEE6do_putES4_RNS_8ios_baseEwdENUlPvE_4_FUNES8_)
                  11832b60    00000020                     : locale.cpp.obj (.text:_ZZNKSt3__27num_putIwNS_19ostreambuf_iteratorIwNS_11char_traitsIwEEEEE6do_putES4_RNS_8ios_baseEweENUlPvE0_4_FUNES8_)
                  11832b80    00000020                     : locale.cpp.obj (.text:_ZZNKSt3__27num_putIwNS_19ostreambuf_iteratorIwNS_11char_traitsIwEEEEE6do_putES4_RNS_8ios_baseEweENUlPvE_4_FUNES8_)
                  11832ba0    00000020                     : locale.cpp.obj (.text:_ZZNKSt3__29money_getIcNS_19istreambuf_iteratorIcNS_11char_traitsIcEEEEE6do_getES4_S4_bRNS_8ios_baseERjReENUlPvE_4_FUNESA_)
                  11832bc0    00000020                     : locale.cpp.obj (.text:_ZZNKSt3__29money_getIwNS_19istreambuf_iteratorIwNS_11char_traitsIwEEEEE6do_getES4_S4_bRNS_8ios_baseERjReENUlPvE_4_FUNESA_)
                  11832be0    00000020                     : locale.cpp.obj (.text:_ZZNKSt3__29money_putIcNS_19ostreambuf_iteratorIcNS_11char_traitsIcEEEEE6do_putES4_bRNS_8ios_baseEcRKNS_12basic_stringIcS3_NS_9allocatorIcEEEEENUlPvE_4_FUNESE_)
                  11832c00    00000020                     : locale.cpp.obj (.text:_ZZNKSt3__29money_putIcNS_19ostreambuf_iteratorIcNS_11char_traitsIcEEEEE6do_putES4_bRNS_8ios_baseEceENUlPvE0_4_FUNES8_)
                  11832c20    00000020                     : locale.cpp.obj (.text:_ZZNKSt3__29money_putIcNS_19ostreambuf_iteratorIcNS_11char_traitsIcEEEEE6do_putES4_bRNS_8ios_baseEceENUlPvE1_4_FUNES8_)
                  11832c40    00000020                     : locale.cpp.obj (.text:_ZZNKSt3__29money_putIcNS_19ostreambuf_iteratorIcNS_11char_traitsIcEEEEE6do_putES4_bRNS_8ios_baseEceENUlPvE_4_FUNES8_)
                  11832c60    00000020                     : locale.cpp.obj (.text:_ZZNKSt3__29money_putIwNS_19ostreambuf_iteratorIwNS_11char_traitsIwEEEEE6do_putES4_bRNS_8ios_baseEwRKNS_12basic_stringIwS3_NS_9allocatorIwEEEEENUlPvE_4_FUNESE_)
                  11832c80    00000020                     : locale.cpp.obj (.text:_ZZNKSt3__29money_putIwNS_19ostreambuf_iteratorIwNS_11char_traitsIwEEEEE6do_putES4_bRNS_8ios_baseEweENUlPvE0_4_FUNES8_)
                  11832ca0    00000020                     : locale.cpp.obj (.text:_ZZNKSt3__29money_putIwNS_19ostreambuf_iteratorIwNS_11char_traitsIwEEEEE6do_putES4_bRNS_8ios_baseEweENUlPvE1_4_FUNES8_)
                  11832cc0    00000020                     : locale.cpp.obj (.text:_ZZNKSt3__29money_putIwNS_19ostreambuf_iteratorIwNS_11char_traitsIwEEEEE6do_putES4_bRNS_8ios_baseEweENUlPvE_4_FUNES8_)
                  11832ce0    00000020                     : locale.cpp.obj (.text:_ZZNSt3__214__scan_keywordINS_19istreambuf_iteratorIcNS_11char_traitsIcEEEEPKNS_12basic_stringIcS3_NS_9allocatorIcEEEENS_5ctypeIcEEEET0_RT_SE_SD_SD_RKT1_RjbENUlPvE_4_FUNESK_)
                  11832d00    00000020                     : locale.cpp.obj (.text:_ZZNSt3__214__scan_keywordINS_19istreambuf_iteratorIwNS_11char_traitsIwEEEEPKNS_12basic_stringIwS3_NS_9allocatorIwEEEENS_5ctypeIwEEEET0_RT_SE_SD_SD_RKT1_RjbENUlPvE_4_FUNESK_)
                  11832d20    00000020                     : locale.cpp.obj (.text:_ZZNSt3__219__double_or_nothingIcEEvRNS_10unique_ptrIT_PFvPvEEERPS2_S9_ENUlS3_E_4_FUNES3_)
                  11832d40    00000020                     : locale.cpp.obj (.text:_ZZNSt3__219__double_or_nothingIjEEvRNS_10unique_ptrIT_PFvPvEEERPS2_S9_ENUlS3_E_4_FUNES3_)
                  11832d60    00000020                     : locale.cpp.obj (.text:_ZZNSt3__219__double_or_nothingIwEEvRNS_10unique_ptrIT_PFvPvEEERPS2_S9_ENUlS3_E_4_FUNES3_)
                  11832d80    00000020                     : new.cpp.obj (.text:_ZdaPv)
                  11832da0    00000020                     : new.cpp.obj (.text:_ZdlPv)
                  11832dc0    00000020                     : new.cpp.obj (.text:_ZdlPvj)
                  11832de0    00000020                     : new.cpp.obj (.text:_Znaj)
                  11832e00    00000020                     : none_mb.c.obj (.text:___mb_cur_max_l)
                  11832e20    00000020                     : error.c.obj (.text:__abort_execution)
                  11832e40    00000020                     : errno.c.obj (.text:__c6xabi_errno_addr)
                  11832e60    00000020                     : guard.c.obj (.text:__cxa_guard_acquire)
                  11832e80    00000020                     : guard.c.obj (.text:__cxa_guard_release)
                  11832ea0    00000020                     : dtor_list.c.obj (.text:__cxa_ia64_exit)
                  11832ec0    00000020                     : pure_virt.c.obj (.text:__cxa_pure_virtual)
                  11832ee0    00000020                     : push.asm.obj (.text:__pop_rts)
                  11832f00    00000020                     : push.asm.obj (.text:__push_rts)
                  11832f20    00000020                     : sscanf.c.obj (.text:_inpchar)
                  11832f40    00000020                     : _lock.c.obj (.text:_nop)
                  11832f60    00000020                     : signbit.c.obj (.text:_signbit)
                  11832f80    00000020                     : startup.c.obj (.text:_system_post_cinit)
                  11832fa0    00000020                     : pre_init.c.obj (.text:_system_pre_init)
                  11832fc0    00000020                     : sscanf.c.obj (.text:_uninpchar)
                  11832fe0    00000020                     : exit.c.obj (.text:abort)
                  11833000    00000020                     : copy_decompress_none.c.obj (.text:decompress:none:__TI_decompress_none)
                  11833020    00000020                     : copy_decompress_rle.c.obj (.text:decompress:rle24:__TI_decompress_rle24)
                  11833040    00000020                     : xlocale.c.obj (.text:freelocale)
                  11833060    00000020                     : none_mb.c.obj (.text:mbrlen)
                  11833080    00000020                     : none_mb.c.obj (.text:mbrlen_l)
                  118330a0    00000020                     : none_mb.c.obj (.text:mbsnrtowcs_l)
                  118330c0    00000020                     : none_mb.c.obj (.text:mbsrtowcs_l)
                  118330e0    00000020                     : none_mb.c.obj (.text:mbtowc_l)
                  11833100    00000020                     : xlocale.c.obj (.text:newlocale)
                  11833120    00000020                     : locale_time.c.obj (.text:strftime_l)
                  11833140    00000020                     : locale_stdlib.c.obj (.text:strtod_l)
                  11833160    00000020                     : locale_stdlib.c.obj (.text:strtof_l)
                  11833180    00000020                     : locale_stdlib.c.obj (.text:strtold_l)
                  118331a0    00000020                     : locale_stdlib.c.obj (.text:strtoll_l)
                  118331c0    00000020                     : locale_stdlib.c.obj (.text:strtoull_l)
                  118331e0    00000020                     : locale_stdio.c.obj (.text:vasprintf_l)
                  11833200    00000020                     : none_mb.c.obj (.text:wcrtomb_l)
                  11833220    00000020                     : none_mb.c.obj (.text:wcsnrtombs_l)
                  11833240    00000020                     : wmemcpy.c.obj (.text:wmemcpy)
                  11833260    00000020                     : wmemmove.c.obj (.text:wmemmove)

.stack     0    11835650    00001000     UNINITIALIZED
                  11835650    00000008     rts6740_elf.lib : boot.c.obj (.stack)
                  11835658    00000ff8     --HOLE--

.cio       0    11838c30    00000120     UNINITIALIZED
                  11838c30    00000120     rts6740_elf.lib : trgmsg.c.obj (.cio)

.const     0    11833280    000023c9     
                  11833280    000005dc     rts6740_elf.lib : locale.cpp.obj (.const:.string)
                  1183385c    00000004     --HOLE-- [fill = 0]
                  11833860    00000101                     : ctype.c.obj (.const:.string:_ctypes_)
                  11833961    00000003     --HOLE-- [fill = 0]
                  11833964    00000100                     : strftime.c.obj (.const:.string)
                  11833a64    00000004     --HOLE-- [fill = 0]
                  11833a68    00000080                     : strtod.c.obj (.const:digits)
                  11833ae8    00000054                     : locale.cpp.obj (.const:_ZTVNSt3__28time_getIcNS_19istreambuf_iteratorIcNS_11char_traitsIcEEEEEE)
                  11833b3c    00000004     --HOLE-- [fill = 0]
                  11833b40    00000054                     : locale.cpp.obj (.const:_ZTVNSt3__28time_getIwNS_19istreambuf_iteratorIwNS_11char_traitsIwEEEEEE)
                  11833b94    00000004     --HOLE-- [fill = 0]
                  11833b98    00000048                     : strtod.c.obj (.const:powerof10)
                  11833be0    00000046                     : locale.cpp.obj (.const:.typeinfo:_ZTSNSt3__29money_getIcNS_19istreambuf_iteratorIcNS_11char_traitsIcEEEEEE)
                  11833c26    00000002     --HOLE-- [fill = 0]
                  11833c28    00000046                     : locale.cpp.obj (.const:.typeinfo:_ZTSNSt3__29money_getIwNS_19istreambuf_iteratorIwNS_11char_traitsIwEEEEEE)
                  11833c6e    00000002     --HOLE-- [fill = 0]
                  11833c70    00000046                     : locale.cpp.obj (.const:.typeinfo:_ZTSNSt3__29money_putIcNS_19ostreambuf_iteratorIcNS_11char_traitsIcEEEEEE)
                  11833cb6    00000002     --HOLE-- [fill = 0]
                  11833cb8    00000046                     : locale.cpp.obj (.const:.typeinfo:_ZTSNSt3__29money_putIwNS_19ostreambuf_iteratorIwNS_11char_traitsIwEEEEEE)
                  11833cfe    00000002     --HOLE-- [fill = 0]
                  11833d00    00000045                     : locale.cpp.obj (.const:.typeinfo:_ZTSNSt3__28time_getIcNS_19istreambuf_iteratorIcNS_11char_traitsIcEEEEEE)
                  11833d45    00000003     --HOLE-- [fill = 0]
                  11833d48    00000045                     : locale.cpp.obj (.const:.typeinfo:_ZTSNSt3__28time_getIwNS_19istreambuf_iteratorIwNS_11char_traitsIwEEEEEE)
                  11833d8d    00000003     --HOLE-- [fill = 0]
                  11833d90    00000045                     : locale.cpp.obj (.const:.typeinfo:_ZTSNSt3__28time_putIcNS_19ostreambuf_iteratorIcNS_11char_traitsIcEEEEEE)
                  11833dd5    00000003     --HOLE-- [fill = 0]
                  11833dd8    00000045                     : locale.cpp.obj (.const:.typeinfo:_ZTSNSt3__28time_putIwNS_19ostreambuf_iteratorIwNS_11char_traitsIwEEEEEE)
                  11833e1d    00000003     --HOLE-- [fill = 0]
                  11833e20    00000044                     : string.cpp.obj (.const:.string:_ZZNSt3__29allocatorIwE8allocateEjPKvEs)
                  11833e64    00000004     --HOLE-- [fill = 0]
                  11833e68    00000044                     : locale.cpp.obj (.const:.typeinfo:_ZTSNSt3__27num_getIcNS_19istreambuf_iteratorIcNS_11char_traitsIcEEEEEE)
                  11833eac    00000004     --HOLE-- [fill = 0]
                  11833eb0    00000044                     : locale.cpp.obj (.const:.typeinfo:_ZTSNSt3__27num_getIwNS_19istreambuf_iteratorIwNS_11char_traitsIwEEEEEE)
                  11833ef4    00000004     --HOLE-- [fill = 0]
                  11833ef8    00000044                     : locale.cpp.obj (.const:.typeinfo:_ZTSNSt3__27num_putIcNS_19ostreambuf_iteratorIcNS_11char_traitsIcEEEEEE)
                  11833f3c    00000004     --HOLE-- [fill = 0]
                  11833f40    00000044                     : locale.cpp.obj (.const:.typeinfo:_ZTSNSt3__27num_putIwNS_19ostreambuf_iteratorIwNS_11char_traitsIwEEEEEE)
                  11833f84    00000004     --HOLE-- [fill = 0]
                  11833f88    00000044                     : locale.cpp.obj (.const:_ZTVNSt3__25ctypeIwEE)
                  11833fcc    00000004     --HOLE-- [fill = 0]
                  11833fd0    00000040                     : iostream.cpp.obj (.const:_ZTVNSt3__210__stdinbufIcEE)
                  11834010    00000040                     : iostream.cpp.obj (.const:_ZTVNSt3__210__stdinbufIwEE)
                  11834050    00000040                     : iostream.cpp.obj (.const:_ZTVNSt3__211__stdoutbufIcEE)
                  11834090    00000040                     : iostream.cpp.obj (.const:_ZTVNSt3__211__stdoutbufIwEE)
                  118340d0    00000040                     : ios.cpp.obj (.const:_ZTVNSt3__215basic_streambufIcNS_11char_traitsIcEEEE)
                  11834110    00000040                     : ios.cpp.obj (.const:_ZTVNSt3__215basic_streambufIwNS_11char_traitsIwEEEE)
                  11834150    00000040                     : locale.cpp.obj (.const:_ZTVNSt3__27num_getIcNS_19istreambuf_iteratorIcNS_11char_traitsIcEEEEEE)
                  11834190    00000040                     : locale.cpp.obj (.const:_ZTVNSt3__27num_getIwNS_19istreambuf_iteratorIwNS_11char_traitsIwEEEEEE)
                  118341d0    00000040                     : strtof.c.obj (.const:digits)
                  11834210    00000038                     : locale.cpp.obj (.const:_ZTVNSt3__210moneypunctIcLb0EEE)
                  11834248    00000038                     : locale.cpp.obj (.const:_ZTVNSt3__210moneypunctIcLb1EEE)
                  11834280    00000038                     : locale.cpp.obj (.const:_ZTVNSt3__210moneypunctIwLb0EEE)
                  118342b8    00000038                     : locale.cpp.obj (.const:_ZTVNSt3__210moneypunctIwLb1EEE)
                  118342f0    00000034                     : locale.cpp.obj (.const:_ZTVNSt3__25ctypeIcEE)
                  11834324    00000004     --HOLE-- [fill = 0]
                  11834328    00000034                     : locale.cpp.obj (.const:_ZTVNSt3__27num_putIcNS_19ostreambuf_iteratorIcNS_11char_traitsIcEEEEEE)
                  1183435c    00000004     --HOLE-- [fill = 0]
                  11834360    00000034                     : locale.cpp.obj (.const:_ZTVNSt3__27num_putIwNS_19ostreambuf_iteratorIwNS_11char_traitsIwEEEEEE)
                  11834394    00000004     --HOLE-- [fill = 0]
                  11834398    00000031                     : ios.cpp.obj (.const:.typeinfo:_ZTSNSt3__215basic_streambufIcNS_11char_traitsIcEEEE)
                  118343c9    00000007     --HOLE-- [fill = 0]
                  118343d0    00000031                     : ios.cpp.obj (.const:.typeinfo:_ZTSNSt3__215basic_streambufIwNS_11char_traitsIwEEEE)
                  11834401    00000007     --HOLE-- [fill = 0]
                  11834408    00000030                     : ios.cpp.obj (.const:_ZTVNSt3__213basic_istreamIcNS_11char_traitsIcEEEE)
                  11834438    00000030                     : ios.cpp.obj (.const:_ZTVNSt3__213basic_istreamIwNS_11char_traitsIwEEEE)
                  11834468    00000030                     : ios.cpp.obj (.const:_ZTVNSt3__213basic_ostreamIcNS_11char_traitsIcEEEE)
                  11834498    00000030                     : ios.cpp.obj (.const:_ZTVNSt3__213basic_ostreamIwNS_11char_traitsIwEEEE)
                  118344c8    00000030                     : locale.cpp.obj (.const:_ZTVNSt3__27codecvtIDiciEE)
                  118344f8    00000030                     : locale.cpp.obj (.const:_ZTVNSt3__27codecvtIDsciEE)
                  11834528    00000030                     : locale.cpp.obj (.const:_ZTVNSt3__27codecvtIcciEE)
                  11834558    00000030                     : locale.cpp.obj (.const:_ZTVNSt3__27codecvtIwciEE)
                  11834588    00000030                     : strftime.c.obj (.const:fmon)
                  118345b8    0000002f                     : ios.cpp.obj (.const:.typeinfo:_ZTSNSt3__213basic_istreamIcNS_11char_traitsIcEEEE)
                  118345e7    00000001     --HOLE-- [fill = 0]
                  118345e8    0000002f                     : ios.cpp.obj (.const:.typeinfo:_ZTSNSt3__213basic_istreamIwNS_11char_traitsIwEEEE)
                  11834617    00000001     --HOLE-- [fill = 0]
                  11834618    0000002f                     : ios.cpp.obj (.const:.typeinfo:_ZTSNSt3__213basic_ostreamIcNS_11char_traitsIcEEEE)
                  11834647    00000001     --HOLE-- [fill = 0]
                  11834648    0000002f                     : ios.cpp.obj (.const:.typeinfo:_ZTSNSt3__213basic_ostreamIwNS_11char_traitsIwEEEE)
                  11834677    00000001     --HOLE-- [fill = 0]
                  11834678    0000002a                     : ios.cpp.obj (.const:.typeinfo:_ZTSNSt3__29basic_iosIcNS_11char_traitsIcEEEE)
                  118346a2    00000006     --HOLE-- [fill = 0]
                  118346a8    0000002a                     : ios.cpp.obj (.const:.typeinfo:_ZTSNSt3__29basic_iosIwNS_11char_traitsIwEEEE)
                  118346d2    00000002     --HOLE-- [fill = 0]
                  118346d4    00000028                     : locale.cpp.obj (.const:.typeinfo:_ZTINSt3__28time_getIcNS_19istreambuf_iteratorIcNS_11char_traitsIcEEEEEE)
                  118346fc    00000028                     : locale.cpp.obj (.const:.typeinfo:_ZTINSt3__28time_getIwNS_19istreambuf_iteratorIwNS_11char_traitsIwEEEEEE)
                  11834724    00000004     --HOLE-- [fill = 0]
                  11834728    00000028                     : locale.cpp.obj (.const:_ZTVNSt3__28numpunctIcEE)
                  11834750    00000028                     : locale.cpp.obj (.const:_ZTVNSt3__28numpunctIwEE)
                  11834778    00000026                     : iostream.cpp.obj (.const:.string:_ZZNSt3__210__stdinbufIcE5imbueERKNS_6localeEEs)
                  1183479e    00000002     --HOLE-- [fill = 0]
                  118347a0    00000026                     : iostream.cpp.obj (.const:.string:_ZZNSt3__210__stdinbufIwE5imbueERKNS_6localeEEs)
                  118347c6    00000002     --HOLE-- [fill = 0]
                  118347c8    00000026                     : typeinfo.c.obj (.const:.typeinfo:_ZTSN10__cxxabiv121__vmi_class_type_infoE)
                  118347ee    00000002     --HOLE-- [fill = 0]
                  118347f0    00000025                     : typeinfo.c.obj (.const:.typeinfo:_ZTSN10__cxxabiv120__si_class_type_infoE)
                  11834815    00000003     --HOLE-- [fill = 0]
                  11834818    00000024     main.obj (.const:.string)
                  1183483c    00000024     rts6740_elf.lib : _printfi.c.obj (.const:.string)
                  11834860    00000022                     : typeinfo.c.obj (.const:.typeinfo:_ZTSN10__cxxabiv117__class_type_infoE)
                  11834882    00000006     --HOLE-- [fill = 0]
                  11834888    00000022                     : locale.cpp.obj (.const:.typeinfo:_ZTSNSt3__220__time_get_c_storageIcEE)
                  118348aa    00000006     --HOLE-- [fill = 0]
                  118348b0    00000022                     : locale.cpp.obj (.const:.typeinfo:_ZTSNSt3__220__time_get_c_storageIwEE)
                  118348d2    00000006     --HOLE-- [fill = 0]
                  118348d8    00000021                     : locale.cpp.obj (.const:.string:_ZNSt3__214__num_get_base5__srcE)
                  118348f9    00000003     --HOLE-- [fill = 0]
                  118348fc    00000020                     : locale.cpp.obj (.const:.typeinfo:_ZTINSt3__210moneypunctIcLb0EEE)
                  1183491c    00000020                     : locale.cpp.obj (.const:.typeinfo:_ZTINSt3__210moneypunctIcLb1EEE)
                  1183493c    00000020                     : locale.cpp.obj (.const:.typeinfo:_ZTINSt3__210moneypunctIwLb0EEE)
                  1183495c    00000020                     : locale.cpp.obj (.const:.typeinfo:_ZTINSt3__210moneypunctIwLb1EEE)
                  1183497c    00000020                     : locale.cpp.obj (.const:.typeinfo:_ZTINSt3__25ctypeIcEE)
                  1183499c    00000020                     : locale.cpp.obj (.const:.typeinfo:_ZTINSt3__25ctypeIwEE)
                  118349bc    00000020                     : locale.cpp.obj (.const:.typeinfo:_ZTINSt3__27codecvtIDiciEE)
                  118349dc    00000020                     : locale.cpp.obj (.const:.typeinfo:_ZTINSt3__27codecvtIDsciEE)
                  118349fc    00000020                     : locale.cpp.obj (.const:.typeinfo:_ZTINSt3__27codecvtIcciEE)
                  11834a1c    00000020                     : locale.cpp.obj (.const:.typeinfo:_ZTINSt3__27codecvtIwciEE)
                  11834a3c    00000020                     : locale.cpp.obj (.const:.typeinfo:_ZTINSt3__27num_getIcNS_19istreambuf_iteratorIcNS_11char_traitsIcEEEEEE)
                  11834a5c    00000020                     : locale.cpp.obj (.const:.typeinfo:_ZTINSt3__27num_getIwNS_19istreambuf_iteratorIwNS_11char_traitsIwEEEEEE)
                  11834a7c    00000020                     : locale.cpp.obj (.const:.typeinfo:_ZTINSt3__27num_putIcNS_19ostreambuf_iteratorIcNS_11char_traitsIcEEEEEE)
                  11834a9c    00000020                     : locale.cpp.obj (.const:.typeinfo:_ZTINSt3__27num_putIwNS_19ostreambuf_iteratorIwNS_11char_traitsIwEEEEEE)
                  11834abc    00000020                     : locale.cpp.obj (.const:.typeinfo:_ZTINSt3__28messagesIcEE)
                  11834adc    00000020                     : locale.cpp.obj (.const:.typeinfo:_ZTINSt3__28messagesIwEE)
                  11834afc    00000020                     : locale.cpp.obj (.const:.typeinfo:_ZTINSt3__28time_putIcNS_19ostreambuf_iteratorIcNS_11char_traitsIcEEEEEE)
                  11834b1c    00000020                     : locale.cpp.obj (.const:.typeinfo:_ZTINSt3__28time_putIwNS_19ostreambuf_iteratorIwNS_11char_traitsIwEEEEEE)
                  11834b3c    00000020                     : locale.cpp.obj (.const:.typeinfo:_ZTINSt3__29money_getIcNS_19istreambuf_iteratorIcNS_11char_traitsIcEEEEEE)
                  11834b5c    00000020                     : locale.cpp.obj (.const:.typeinfo:_ZTINSt3__29money_getIwNS_19istreambuf_iteratorIwNS_11char_traitsIwEEEEEE)
                  11834b7c    00000020                     : locale.cpp.obj (.const:.typeinfo:_ZTINSt3__29money_putIcNS_19ostreambuf_iteratorIcNS_11char_traitsIcEEEEEE)
                  11834b9c    00000020                     : locale.cpp.obj (.const:.typeinfo:_ZTINSt3__29money_putIwNS_19ostreambuf_iteratorIwNS_11char_traitsIwEEEEEE)
                  11834bbc    00000004     --HOLE-- [fill = 0]
                  11834bc0    00000020                     : locale.cpp.obj (.const:_ZTVNSt3__27collateIcEE)
                  11834be0    00000020                     : locale.cpp.obj (.const:_ZTVNSt3__27collateIwEE)
                  11834c00    00000020                     : locale.cpp.obj (.const:_ZTVNSt3__28messagesIcEE)
                  11834c20    00000020                     : locale.cpp.obj (.const:_ZTVNSt3__28messagesIwEE)
                  11834c40    0000001c                     : locale.cpp.obj (.const:.typeinfo:_ZTSNSt3__210moneypunctIcLb0EEE)
                  11834c5c    00000004     --HOLE-- [fill = 0]
                  11834c60    0000001c                     : locale.cpp.obj (.const:.typeinfo:_ZTSNSt3__210moneypunctIcLb1EEE)
                  11834c7c    00000004     --HOLE-- [fill = 0]
                  11834c80    0000001c                     : locale.cpp.obj (.const:.typeinfo:_ZTSNSt3__210moneypunctIwLb0EEE)
                  11834c9c    00000004     --HOLE-- [fill = 0]
                  11834ca0    0000001c                     : locale.cpp.obj (.const:.typeinfo:_ZTSNSt3__210moneypunctIwLb1EEE)
                  11834cbc    00000004     --HOLE-- [fill = 0]
                  11834cc0    0000001c                     : locale.cpp.obj (.const:_ZTVNSt3__29money_getIcNS_19istreambuf_iteratorIcNS_11char_traitsIcEEEEEE)
                  11834cdc    00000004     --HOLE-- [fill = 0]
                  11834ce0    0000001c                     : locale.cpp.obj (.const:_ZTVNSt3__29money_getIwNS_19istreambuf_iteratorIwNS_11char_traitsIwEEEEEE)
                  11834cfc    00000004     --HOLE-- [fill = 0]
                  11834d00    0000001c                     : locale.cpp.obj (.const:_ZTVNSt3__29money_putIcNS_19ostreambuf_iteratorIcNS_11char_traitsIcEEEEEE)
                  11834d1c    00000004     --HOLE-- [fill = 0]
                  11834d20    0000001c                     : locale.cpp.obj (.const:_ZTVNSt3__29money_putIwNS_19ostreambuf_iteratorIwNS_11char_traitsIwEEEEEE)
                  11834d3c    00000004     --HOLE-- [fill = 0]
                  11834d40    0000001c                     : strftime.c.obj (.const:fday)
                  11834d5c    00000004     --HOLE-- [fill = 0]
                  11834d60    00000019                     : locale.cpp.obj (.const:.typeinfo:_ZTSNSt3__211__money_getIcEE)
                  11834d79    00000007     --HOLE-- [fill = 0]
                  11834d80    00000019                     : locale.cpp.obj (.const:.typeinfo:_ZTSNSt3__211__money_getIwEE)
                  11834d99    00000007     --HOLE-- [fill = 0]
                  11834da0    00000019                     : locale.cpp.obj (.const:.typeinfo:_ZTSNSt3__211__money_putIcEE)
                  11834db9    00000007     --HOLE-- [fill = 0]
                  11834dc0    00000019                     : locale.cpp.obj (.const:.typeinfo:_ZTSNSt3__211__money_putIwEE)
                  11834dd9    00000007     --HOLE-- [fill = 0]
                  11834de0    00000019                     : iostream.cpp.obj (.const:.typeinfo:_ZTSNSt3__211__stdoutbufIcEE)
                  11834df9    00000007     --HOLE-- [fill = 0]
                  11834e00    00000019                     : iostream.cpp.obj (.const:.typeinfo:_ZTSNSt3__211__stdoutbufIwEE)
                  11834e19    00000007     --HOLE-- [fill = 0]
                  11834e20    00000019                     : locale.cpp.obj (.const:.typeinfo:_ZTSNSt3__214__num_get_baseE)
                  11834e39    00000007     --HOLE-- [fill = 0]
                  11834e40    00000019                     : locale.cpp.obj (.const:.typeinfo:_ZTSNSt3__214__num_put_baseE)
                  11834e59    00000007     --HOLE-- [fill = 0]
                  11834e60    00000019                     : memory.cpp.obj (.const:.typeinfo:_ZTSNSt3__214__shared_countE)
                  11834e79    00000003     --HOLE-- [fill = 0]
                  11834e7c    00000018                     : ios.cpp.obj (.const:.typeinfo:_ZTINSt3__213basic_istreamIcNS_11char_traitsIcEEEE)
                  11834e94    00000018                     : ios.cpp.obj (.const:.typeinfo:_ZTINSt3__213basic_istreamIwNS_11char_traitsIwEEEE)
                  11834eac    00000018                     : ios.cpp.obj (.const:.typeinfo:_ZTINSt3__213basic_ostreamIcNS_11char_traitsIcEEEE)
                  11834ec4    00000018                     : ios.cpp.obj (.const:.typeinfo:_ZTINSt3__213basic_ostreamIwNS_11char_traitsIwEEEE)
                  11834edc    00000018                     : locale.cpp.obj (.const:.typeinfo:_ZTINSt3__29__num_getIcEE)
                  11834ef4    00000018                     : locale.cpp.obj (.const:.typeinfo:_ZTINSt3__29__num_getIwEE)
                  11834f0c    00000018                     : locale.cpp.obj (.const:.typeinfo:_ZTINSt3__29__num_putIcEE)
                  11834f24    00000018                     : locale.cpp.obj (.const:.typeinfo:_ZTINSt3__29__num_putIwEE)
                  11834f3c    00000004     --HOLE-- [fill = 0]
                  11834f40    00000018                     : iostream.cpp.obj (.const:.typeinfo:_ZTSNSt3__210__stdinbufIcEE)
                  11834f58    00000018                     : iostream.cpp.obj (.const:.typeinfo:_ZTSNSt3__210__stdinbufIwEE)
                  11834f70    00000018                     : locale.cpp.obj (.const:.typeinfo:_ZTSNSt3__213messages_baseE)
                  11834f88    00000018                     : locale.cpp.obj (.const:_ZTVNSt3__28time_putIcNS_19ostreambuf_iteratorIcNS_11char_traitsIcEEEEEE)
                  11834fa0    00000018                     : locale.cpp.obj (.const:_ZTVNSt3__28time_putIwNS_19ostreambuf_iteratorIwNS_11char_traitsIwEEEEEE)
                  11834fb8    00000018                     : strtof.c.obj (.const:powerof10)
                  11834fd0    00000017                     : locale.cpp.obj (.const:.typeinfo:_ZTSNSt3__212codecvt_baseE)
                  11834fe7    00000001     --HOLE-- [fill = 0]
                  11834fe8    00000017                     : locale.cpp.obj (.const:.typeinfo:_ZTSNSt3__27codecvtIDiciEE)
                  11834fff    00000001     --HOLE-- [fill = 0]
                  11835000    00000017                     : locale.cpp.obj (.const:.typeinfo:_ZTSNSt3__27codecvtIDsciEE)
                  11835017    00000001     --HOLE-- [fill = 0]
                  11835018    00000016                     : locale.cpp.obj (.const:$P$T819$60)
                  1183502e    00000002     --HOLE-- [fill = 0]
                  11835030    00000016                     : locale.cpp.obj (.const:.typeinfo:_ZTSNSt3__26locale5__impE)
                  11835046    00000002     --HOLE-- [fill = 0]
                  11835048    00000016                     : locale.cpp.obj (.const:.typeinfo:_ZTSNSt3__26locale5facetE)
                  1183505e    00000002     --HOLE-- [fill = 0]
                  11835060    00000016                     : locale.cpp.obj (.const:.typeinfo:_ZTSNSt3__27codecvtIcciEE)
                  11835076    00000002     --HOLE-- [fill = 0]
                  11835078    00000016                     : locale.cpp.obj (.const:.typeinfo:_ZTSNSt3__27codecvtIwciEE)
                  1183508e    00000002     --HOLE-- [fill = 0]
                  11835090    00000016                     : locale.cpp.obj (.const:.typeinfo:_ZTSNSt3__29__num_getIcEE)
                  118350a6    00000002     --HOLE-- [fill = 0]
                  118350a8    00000016                     : locale.cpp.obj (.const:.typeinfo:_ZTSNSt3__29__num_getIwEE)
                  118350be    00000002     --HOLE-- [fill = 0]
                  118350c0    00000016                     : locale.cpp.obj (.const:.typeinfo:_ZTSNSt3__29__num_putIcEE)
                  118350d6    00000002     --HOLE-- [fill = 0]
                  118350d8    00000016                     : locale.cpp.obj (.const:.typeinfo:_ZTSNSt3__29__num_putIwEE)
                  118350ee    00000002     --HOLE-- [fill = 0]
                  118350f0    00000015                     : locale.cpp.obj (.const:.typeinfo:_ZTSNSt3__210__time_putE)
                  11835105    00000003     --HOLE-- [fill = 0]
                  11835108    00000015                     : locale.cpp.obj (.const:.typeinfo:_ZTSNSt3__210ctype_baseE)
                  1183511d    00000003     --HOLE-- [fill = 0]
                  11835120    00000015                     : locale.cpp.obj (.const:.typeinfo:_ZTSNSt3__210money_baseE)
                  11835135    00000003     --HOLE-- [fill = 0]
                  11835138    00000015                     : locale.cpp.obj (.const:.typeinfo:_ZTSNSt3__28messagesIcEE)
                  1183514d    00000003     --HOLE-- [fill = 0]
                  11835150    00000015                     : locale.cpp.obj (.const:.typeinfo:_ZTSNSt3__28messagesIwEE)
                  11835165    00000003     --HOLE-- [fill = 0]
                  11835168    00000015                     : locale.cpp.obj (.const:.typeinfo:_ZTSNSt3__28numpunctIcEE)
                  1183517d    00000003     --HOLE-- [fill = 0]
                  11835180    00000015                     : locale.cpp.obj (.const:.typeinfo:_ZTSNSt3__28numpunctIwEE)
                  11835195    00000003     --HOLE-- [fill = 0]
                  11835198    00000014                     : locale.cpp.obj (.const:.typeinfo:_ZTSNSt3__27collateIcEE)
                  118351ac    00000004     --HOLE-- [fill = 0]
                  118351b0    00000014                     : locale.cpp.obj (.const:.typeinfo:_ZTSNSt3__27collateIwEE)
                  118351c4    00000004     --HOLE-- [fill = 0]
                  118351c8    00000014                     : memory.cpp.obj (.const:_ZTVNSt3__214__shared_countE)
                  118351dc    00000004     --HOLE-- [fill = 0]
                  118351e0    00000014                     : locale.cpp.obj (.const:_ZTVNSt3__26locale5__impE)
                  118351f4    00000004     --HOLE-- [fill = 0]
                  118351f8    00000014                     : locale.cpp.obj (.const:_ZTVNSt3__26locale5facetE)
                  1183520c    00000004     --HOLE-- [fill = 0]
                  11835210    00000013                     : locale.cpp.obj (.const:.typeinfo:_ZTSNSt3__29time_baseE)
                  11835223    00000005     --HOLE-- [fill = 0]
                  11835228    00000012                     : locale.cpp.obj (.const:.typeinfo:_ZTSNSt3__25ctypeIcEE)
                  1183523a    00000006     --HOLE-- [fill = 0]
                  11835240    00000012                     : locale.cpp.obj (.const:.typeinfo:_ZTSNSt3__25ctypeIwEE)
                  11835252    00000006     --HOLE-- [fill = 0]
                  11835258    00000012                     : ios.cpp.obj (.const:.typeinfo:_ZTSNSt3__28ios_baseE)
                  1183526a    00000006     --HOLE-- [fill = 0]
                  11835270    00000010                     : locale.cpp.obj (.const:$P$T811$57)
                  11835280    00000010                     : locale.cpp.obj (.const:$P$T817$58)
                  11835290    00000010                     : locale.cpp.obj (.const:$P$T818$59)
                  118352a0    00000010                     : locale.cpp.obj (.const:$P$T821$62)
                  118352b0    00000010                     : _scanfi.c.obj (.const:.string)
                  118352c0    00000010                     : typeinfo.c.obj (.const:_ZTVN10__cxxabiv117__class_type_infoE)
                  118352d0    00000010                     : typeinfo.c.obj (.const:_ZTVN10__cxxabiv120__si_class_type_infoE)
                  118352e0    00000010                     : typeinfo.c.obj (.const:_ZTVN10__cxxabiv121__vmi_class_type_infoE)
                  118352f0    00000010                     : ios.cpp.obj (.const:_ZTVNSt3__28ios_baseE)
                  11835300    00000010                     : ios.cpp.obj (.const:_ZTVNSt3__29basic_iosIcNS_11char_traitsIcEEEE)
                  11835310    00000010                     : ios.cpp.obj (.const:_ZTVNSt3__29basic_iosIwNS_11char_traitsIwEEEE)
                  11835320    0000000d                     : string.cpp.obj (.const:.string:_ZZNKSt3__221__basic_string_commonILb1EE20__throw_length_errorEvEs)
                  1183532d    00000003     --HOLE-- [fill = 0]
                  11835330    0000000d                     : stdlib_typeinfo.cpp.obj (.const:.typeinfo:_ZTSSt9type_info)
                  1183533d    00000003     --HOLE-- [fill = 0]
                  11835340    0000000c                     : string.cpp.obj (.const:$P$T129$6)
                  1183534c    0000000c                     : locale.cpp.obj (.const:$P$T13$1)
                  11835358    0000000c                     : string.cpp.obj (.const:$P$T33$4)
                  11835364    0000000c                     : locale.cpp.obj (.const:$P$T49$2)
                  11835370    0000000c                     : typeinfo.c.obj (.const:.typeinfo:_ZTIN10__cxxabiv117__class_type_infoE)
                  1183537c    0000000c                     : typeinfo.c.obj (.const:.typeinfo:_ZTIN10__cxxabiv120__si_class_type_infoE)
                  11835388    0000000c                     : typeinfo.c.obj (.const:.typeinfo:_ZTIN10__cxxabiv121__vmi_class_type_infoE)
                  11835394    0000000c                     : iostream.cpp.obj (.const:.typeinfo:_ZTINSt3__210__stdinbufIcEE)
                  118353a0    0000000c                     : iostream.cpp.obj (.const:.typeinfo:_ZTINSt3__210__stdinbufIwEE)
                  118353ac    0000000c                     : iostream.cpp.obj (.const:.typeinfo:_ZTINSt3__211__stdoutbufIcEE)
                  118353b8    0000000c                     : iostream.cpp.obj (.const:.typeinfo:_ZTINSt3__211__stdoutbufIwEE)
                  118353c4    0000000c                     : locale.cpp.obj (.const:.typeinfo:_ZTINSt3__26locale5__impE)
                  118353d0    0000000c                     : locale.cpp.obj (.const:.typeinfo:_ZTINSt3__26locale5facetE)
                  118353dc    0000000c                     : locale.cpp.obj (.const:.typeinfo:_ZTINSt3__27collateIcEE)
                  118353e8    0000000c                     : locale.cpp.obj (.const:.typeinfo:_ZTINSt3__27collateIwEE)
                  118353f4    0000000c                     : locale.cpp.obj (.const:.typeinfo:_ZTINSt3__28numpunctIcEE)
                  11835400    0000000c                     : locale.cpp.obj (.const:.typeinfo:_ZTINSt3__28numpunctIwEE)
                  1183540c    0000000c                     : ios.cpp.obj (.const:.typeinfo:_ZTINSt3__29basic_iosIcNS_11char_traitsIcEEEE)
                  11835418    0000000c                     : ios.cpp.obj (.const:.typeinfo:_ZTINSt3__29basic_iosIwNS_11char_traitsIwEEEE)
                  11835424    00000004     --HOLE-- [fill = 0]
                  11835428    0000000b                     : locale.cpp.obj (.const:.string:$P$T807$54)
                  11835433    00000005     --HOLE-- [fill = 0]
                  11835438    0000000b                     : locale.cpp.obj (.const:.string:$P$T899$68)
                  11835443    00000005     --HOLE-- [fill = 0]
                  11835448    0000000b                     : locale.cpp.obj (.const:.string:$P$T917$69)
                  11835453    00000005     --HOLE-- [fill = 0]
                  11835458    0000000a                     : locale.cpp.obj (.const:$P$T820$61)
                  11835462    00000002     --HOLE-- [fill = 0]
                  11835464    00000008                     : locale.cpp.obj (.const:$P$T4)
                  1183546c    00000004     --HOLE-- [fill = 0]
                  11835470    00000008                     : locale.cpp.obj (.const:.string:$P$T722$18)
                  11835478    00000008                     : locale.cpp.obj (.const:.string:$P$T732$20)
                  11835480    00000008                     : locale.cpp.obj (.const:.string:$P$T738$21)
                  11835488    00000008                     : locale.cpp.obj (.const:.string:$P$T744$22)
                  11835490    00000008                     : locale.cpp.obj (.const:.string:$P$T759$25)
                  11835498    00000008                     : locale.cpp.obj (.const:.string:$P$T769$27)
                  118354a0    00000008                     : locale.cpp.obj (.const:.string:$P$T775$28)
                  118354a8    00000008                     : locale.cpp.obj (.const:.string:$P$T781$29)
                  118354b0    00000008                     : locale.cpp.obj (.const:.string:$P$T799$51)
                  118354b8    00000008                     : locale.cpp.obj (.const:.string:$P$T805$52)
                  118354c0    00000008                     : locale.cpp.obj (.const:.string:$P$T806$53)
                  118354c8    00000008                     : locale.cpp.obj (.const:.string:$P$T809$56)
                  118354d0    00000008                     : locale.cpp.obj (.const:.typeinfo:_ZTINSt3__210__time_putE)
                  118354d8    00000008                     : locale.cpp.obj (.const:.typeinfo:_ZTINSt3__210ctype_baseE)
                  118354e0    00000008                     : locale.cpp.obj (.const:.typeinfo:_ZTINSt3__210money_baseE)
                  118354e8    00000008                     : locale.cpp.obj (.const:.typeinfo:_ZTINSt3__211__money_getIcEE)
                  118354f0    00000008                     : locale.cpp.obj (.const:.typeinfo:_ZTINSt3__211__money_getIwEE)
                  118354f8    00000008                     : locale.cpp.obj (.const:.typeinfo:_ZTINSt3__211__money_putIcEE)
                  11835500    00000008                     : locale.cpp.obj (.const:.typeinfo:_ZTINSt3__211__money_putIwEE)
                  11835508    00000008                     : locale.cpp.obj (.const:.typeinfo:_ZTINSt3__212codecvt_baseE)
                  11835510    00000008                     : locale.cpp.obj (.const:.typeinfo:_ZTINSt3__213messages_baseE)
                  11835518    00000008                     : locale.cpp.obj (.const:.typeinfo:_ZTINSt3__214__num_get_baseE)
                  11835520    00000008                     : locale.cpp.obj (.const:.typeinfo:_ZTINSt3__214__num_put_baseE)
                  11835528    00000008                     : memory.cpp.obj (.const:.typeinfo:_ZTINSt3__214__shared_countE)
                  11835530    00000008                     : ios.cpp.obj (.const:.typeinfo:_ZTINSt3__215basic_streambufIcNS_11char_traitsIcEEEE)
                  11835538    00000008                     : ios.cpp.obj (.const:.typeinfo:_ZTINSt3__215basic_streambufIwNS_11char_traitsIwEEEE)
                  11835540    00000008                     : locale.cpp.obj (.const:.typeinfo:_ZTINSt3__220__time_get_c_storageIcEE)
                  11835548    00000008                     : locale.cpp.obj (.const:.typeinfo:_ZTINSt3__220__time_get_c_storageIwEE)
                  11835550    00000008                     : ios.cpp.obj (.const:.typeinfo:_ZTINSt3__28ios_baseE)
                  11835558    00000008                     : locale.cpp.obj (.const:.typeinfo:_ZTINSt3__29time_baseE)
                  11835560    00000008                     : stdlib_typeinfo.cpp.obj (.const:.typeinfo:_ZTISt9type_info)
                  11835568    00000007                     : vector.cpp.obj (.const:.string:_ZZNKSt3__220__vector_base_commonILb1EE20__throw_length_errorEvEs)
                  1183556f    00000001     --HOLE-- [fill = 0]
                  11835570    00000007                     : _scanfi.c.obj (.const:.string:flit$1)
                  11835577    00000001     --HOLE-- [fill = 0]
                  11835578    00000006                     : locale.cpp.obj (.const:.string:$P$T717$17)
                  1183557e    00000002     --HOLE-- [fill = 0]
                  11835580    00000006                     : locale.cpp.obj (.const:.string:$P$T727$19)
                  11835586    00000002     --HOLE-- [fill = 0]
                  11835588    00000006                     : locale.cpp.obj (.const:.string:$P$T746$23)
                  1183558e    00000002     --HOLE-- [fill = 0]
                  11835590    00000006                     : locale.cpp.obj (.const:.string:$P$T754$24)
                  11835596    00000002     --HOLE-- [fill = 0]
                  11835598    00000006                     : locale.cpp.obj (.const:.string:$P$T764$26)
                  1183559e    00000002     --HOLE-- [fill = 0]
                  118355a0    00000006                     : locale.cpp.obj (.const:.string:$P$T783$30)
                  118355a6    00000002     --HOLE-- [fill = 0]
                  118355a8    00000006                     : locale.cpp.obj (.const:.string:_ZZNKSt3__29money_putIcNS_19ostreambuf_iteratorIcNS_11char_traitsIcEEEEE6do_putES4_bRNS_8ios_baseEceEs)
                  118355ae    00000002     --HOLE-- [fill = 0]
                  118355b0    00000006                     : locale.cpp.obj (.const:.string:_ZZNKSt3__29money_putIwNS_19ostreambuf_iteratorIwNS_11char_traitsIwEEEEE6do_putES4_bRNS_8ios_baseEweEs)
                  118355b6    00000002     --HOLE-- [fill = 0]
                  118355b8    00000006                     : _scanfi.c.obj (.const:.string:barr$2)
                  118355be    00000002     --HOLE-- [fill = 0]
                  118355c0    00000005                     : locale.cpp.obj (.const:.string:$P$T808$55)
                  118355c5    00000003     --HOLE-- [fill = 0]
                  118355c8    00000004                     : locale.cpp.obj (.const:.string:$P$T865$67)
                  118355cc    00000004     --HOLE-- [fill = 0]
                  118355d0    00000004                     : locale.cpp.obj (.const:.string:_ZZNKSt3__29money_getIcNS_19istreambuf_iteratorIcNS_11char_traitsIcEEEEE6do_getES4_S4_bRNS_8ios_baseERjReEs_0)
                  118355d4    00000004     --HOLE-- [fill = 0]
                  118355d8    00000004                     : locale.cpp.obj (.const:.string:_ZZNKSt3__29money_getIwNS_19istreambuf_iteratorIwNS_11char_traitsIwEEEEE6do_getES4_S4_bRNS_8ios_baseERjReEs_0)
                  118355dc    00000004     --HOLE-- [fill = 0]
                  118355e0    00000003                     : locale.cpp.obj (.const:.string:_ZZNKSt3__27num_getIcNS_19istreambuf_iteratorIcNS_11char_traitsIcEEEEE6do_getES4_S4_RNS_8ios_baseERjRPvEs)
                  118355e3    00000005     --HOLE-- [fill = 0]
                  118355e8    00000003                     : locale.cpp.obj (.const:.string:_ZZNKSt3__27num_getIwNS_19istreambuf_iteratorIwNS_11char_traitsIwEEEEE6do_getES4_S4_RNS_8ios_baseERjRPvEs)
                  118355eb    00000005     --HOLE-- [fill = 0]
                  118355f0    00000003                     : locale.cpp.obj (.const:.string:_ZZNKSt3__27num_putIcNS_19ostreambuf_iteratorIcNS_11char_traitsIcEEEEE6do_putES4_RNS_8ios_baseEcxEs)
                  118355f3    00000005     --HOLE-- [fill = 0]
                  118355f8    00000003                     : locale.cpp.obj (.const:.string:_ZZNKSt3__27num_putIcNS_19ostreambuf_iteratorIcNS_11char_traitsIcEEEEE6do_putES4_RNS_8ios_baseEcyEs)
                  118355fb    00000005     --HOLE-- [fill = 0]
                  11835600    00000003                     : locale.cpp.obj (.const:.string:_ZZNKSt3__27num_putIwNS_19ostreambuf_iteratorIwNS_11char_traitsIwEEEEE6do_putES4_RNS_8ios_baseEwxEs)
                  11835603    00000005     --HOLE-- [fill = 0]
                  11835608    00000003                     : locale.cpp.obj (.const:.string:_ZZNKSt3__27num_putIwNS_19ostreambuf_iteratorIwNS_11char_traitsIwEEEEE6do_putES4_RNS_8ios_baseEwyEs)
                  1183560b    00000005     --HOLE-- [fill = 0]
                  11835610    00000002                     : locale.cpp.obj (.const:.string:_ZZNKSt3__27num_putIcNS_19ostreambuf_iteratorIcNS_11char_traitsIcEEEEE6do_putES4_RNS_8ios_baseEceEs)
                  11835612    00000006     --HOLE-- [fill = 0]
                  11835618    00000002                     : locale.cpp.obj (.const:.string:_ZZNKSt3__27num_putIcNS_19ostreambuf_iteratorIcNS_11char_traitsIcEEEEE6do_putES4_RNS_8ios_baseEclEs)
                  1183561a    00000006     --HOLE-- [fill = 0]
                  11835620    00000002                     : locale.cpp.obj (.const:.string:_ZZNKSt3__27num_putIcNS_19ostreambuf_iteratorIcNS_11char_traitsIcEEEEE6do_putES4_RNS_8ios_baseEcmEs)
                  11835622    00000006     --HOLE-- [fill = 0]
                  11835628    00000002                     : locale.cpp.obj (.const:.string:_ZZNKSt3__27num_putIwNS_19ostreambuf_iteratorIwNS_11char_traitsIwEEEEE6do_putES4_RNS_8ios_baseEweEs)
                  1183562a    00000006     --HOLE-- [fill = 0]
                  11835630    00000002                     : locale.cpp.obj (.const:.string:_ZZNKSt3__27num_putIwNS_19ostreambuf_iteratorIwNS_11char_traitsIwEEEEE6do_putES4_RNS_8ios_baseEwlEs)
                  11835632    00000006     --HOLE-- [fill = 0]
                  11835638    00000002                     : locale.cpp.obj (.const:.string:_ZZNKSt3__27num_putIwNS_19ostreambuf_iteratorIwNS_11char_traitsIwEEEEE6do_putES4_RNS_8ios_baseEwmEs)
                  1183563a    00000006     --HOLE-- [fill = 0]
                  11835640    00000001                     : locale.cpp.obj (.const:.string:_ZZNKSt3__27num_putIcNS_19ostreambuf_iteratorIcNS_11char_traitsIcEEEEE6do_putES4_RNS_8ios_baseEcdEs)
                  11835641    00000007     --HOLE-- [fill = 0]
                  11835648    00000001                     : locale.cpp.obj (.const:.string:_ZZNKSt3__27num_putIwNS_19ostreambuf_iteratorIwNS_11char_traitsIwEEEEE6do_putES4_RNS_8ios_baseEwdEs)

.init_array 
*          0    1183564c    00000004     
                  1183564c    00000004     rts6740_elf.lib : iostream.cpp.obj (.init_array:101)

.sysmem    0    11836650    00001000     UNINITIALIZED
                  11836650    00000008     rts6740_elf.lib : memory.c.obj (.sysmem)
                  11836658    00000ff8     --HOLE--

.far       0    11837650    00000de1     UNINITIALIZED
                  11837650    00000140     (.common:__TI_tmpnams)
                  11837790    00000120     rts6740_elf.lib : locale.cpp.obj (.far:_ZZN32_INTERNAL_10_locale_cpp_a7183203St3__210init_am_pmEvE5am_pm)
                  118378b0    00000120                     : locale.cpp.obj (.far:_ZZN32_INTERNAL_10_locale_cpp_a7183203St3__211init_monthsEvE6months)
                  118379d0    00000120                     : locale.cpp.obj (.far:_ZZN32_INTERNAL_10_locale_cpp_a7183203St3__211init_wam_pmEvE5am_pm)
                  11837af0    00000120                     : locale.cpp.obj (.far:_ZZN32_INTERNAL_10_locale_cpp_a7183203St3__212init_wmonthsEvE6months)
                  11837c10    000000a8                     : locale.cpp.obj (.far:_ZZN32_INTERNAL_10_locale_cpp_a7183203St3__210init_weeksEvE5weeks)
                  11837cb8    000000a8                     : locale.cpp.obj (.far:_ZZN32_INTERNAL_10_locale_cpp_a7183203St3__211init_wweeksEvE5weeks)
                  11837d60    000000a0                     : locale.cpp.obj (.far:_ZZNSt3__234_GLOBAL__N__10_locale_cpp_a71832034makeINS_6locale5__impEjEERT_T0_E3buf)
                  11837e00    00000080                     : locale.cpp.obj (.far)
                  11837e80    00000058     (.common:_ZNSt3__23cinE)
                  11837ed8    00000058     (.common:_ZNSt3__24wcinE)
                  11837f30    00000054     (.common:_ZNSt3__24cerrE)
                  11837f84    00000054     (.common:_ZNSt3__24clogE)
                  11837fd8    00000054     (.common:_ZNSt3__24coutE)
                  1183802c    00000054     (.common:_ZNSt3__25wcerrE)
                  11838080    00000054     (.common:_ZNSt3__25wclogE)
                  118380d4    00000054     (.common:_ZNSt3__25wcoutE)
                  11838128    00000038                     : iostream.cpp.obj (.far:_ZN34_INTERNAL_12_iostream_cpp_d173592aSt3__25__cinE)
                  11838160    00000038                     : iostream.cpp.obj (.far:_ZN34_INTERNAL_12_iostream_cpp_d173592aSt3__26__wcinE)
                  11838198    00000030                     : iostream.cpp.obj (.far:_ZN34_INTERNAL_12_iostream_cpp_d173592aSt3__26__cerrE)
                  118381c8    00000030                     : iostream.cpp.obj (.far:_ZN34_INTERNAL_12_iostream_cpp_d173592aSt3__26__coutE)
                  118381f8    00000030                     : iostream.cpp.obj (.far:_ZN34_INTERNAL_12_iostream_cpp_d173592aSt3__27__wcerrE)
                  11838228    00000030                     : iostream.cpp.obj (.far:_ZN34_INTERNAL_12_iostream_cpp_d173592aSt3__27__wcoutE)
                  11838258    00000018                     : locale.cpp.obj (.far:_ZZNSt3__234_GLOBAL__N__10_locale_cpp_a71832034makeINS_8numpunctIcEEjEERT_T0_E3buf)
                  11838270    00000018                     : locale.cpp.obj (.far:_ZZNSt3__234_GLOBAL__N__10_locale_cpp_a71832034makeINS_8numpunctIwEEjEERT_T0_E3buf)
                  11838288    00000018                     : vla_alloc.c.obj (.far:pool$1)
                  118382a0    00000018                     : iostream.cpp.obj (.far)
                  118382b8    00000010                     : locale.cpp.obj (.far:_ZZNSt3__234_GLOBAL__N__10_locale_cpp_a71832034makeINS_5ctypeIcEEDnbjEERT_T0_T1_T2_E3buf)
                  118382c8    00000010                     : locale.cpp.obj (.far:_ZZNSt3__234_GLOBAL__N__10_locale_cpp_a71832034makeINS_7codecvtIwciEEjEERT_T0_E3buf)
                  118382d8    00000010                     : locale.cpp.obj (.far:_ZZNSt3__234_GLOBAL__N__10_locale_cpp_a71832034makeINS_8time_getIcNS_19istreambuf_iteratorIcNS_11char_traitsIcEEEEEEjEERT_T0_E3buf)
                  118382e8    00000010                     : locale.cpp.obj (.far:_ZZNSt3__234_GLOBAL__N__10_locale_cpp_a71832034makeINS_8time_getIwNS_19istreambuf_iteratorIwNS_11char_traitsIwEEEEEEjEERT_T0_E3buf)
                  118382f8    00000010                     : locale.cpp.obj (.far:_ZZNSt3__234_GLOBAL__N__10_locale_cpp_a71832034makeINS_8time_putIcNS_19ostreambuf_iteratorIcNS_11char_traitsIcEEEEEEjEERT_T0_E3buf)
                  11838308    00000010                     : locale.cpp.obj (.far:_ZZNSt3__234_GLOBAL__N__10_locale_cpp_a71832034makeINS_8time_putIwNS_19ostreambuf_iteratorIwNS_11char_traitsIwEEEEEEjEERT_T0_E3buf)
                  11838318    0000000c                     : locale.cpp.obj (.far:_ZZNKSt3__220__time_get_c_storageIcE3__XEvE1s)
                  11838324    0000000c                     : locale.cpp.obj (.far:_ZZNKSt3__220__time_get_c_storageIcE3__cEvE1s)
                  11838330    0000000c                     : locale.cpp.obj (.far:_ZZNKSt3__220__time_get_c_storageIcE3__rEvE1s)
                  1183833c    0000000c                     : locale.cpp.obj (.far:_ZZNKSt3__220__time_get_c_storageIcE3__xEvE1s)
                  11838348    0000000c                     : locale.cpp.obj (.far:_ZZNKSt3__220__time_get_c_storageIwE3__XEvE1s)
                  11838354    0000000c                     : locale.cpp.obj (.far:_ZZNKSt3__220__time_get_c_storageIwE3__cEvE1s)
                  11838360    0000000c                     : locale.cpp.obj (.far:_ZZNKSt3__220__time_get_c_storageIwE3__rEvE1s)
                  1183836c    0000000c                     : locale.cpp.obj (.far:_ZZNKSt3__220__time_get_c_storageIwE3__xEvE1s)
                  11838378    00000008     (.common:parmbuf)
                  11838380    00000008                     : locale.cpp.obj (.far:_ZZNSt3__234_GLOBAL__N__10_locale_cpp_a71832034makeINS_10moneypunctIcLb0EEEjEERT_T0_E3buf)
                  11838388    00000008                     : locale.cpp.obj (.far:_ZZNSt3__234_GLOBAL__N__10_locale_cpp_a71832034makeINS_10moneypunctIcLb1EEEjEERT_T0_E3buf)
                  11838390    00000008                     : locale.cpp.obj (.far:_ZZNSt3__234_GLOBAL__N__10_locale_cpp_a71832034makeINS_10moneypunctIwLb0EEEjEERT_T0_E3buf)
                  11838398    00000008                     : locale.cpp.obj (.far:_ZZNSt3__234_GLOBAL__N__10_locale_cpp_a71832034makeINS_10moneypunctIwLb1EEEjEERT_T0_E3buf)
                  118383a0    00000008                     : locale.cpp.obj (.far:_ZZNSt3__234_GLOBAL__N__10_locale_cpp_a71832034makeINS_5ctypeIwEEjEERT_T0_E3buf)
                  118383a8    00000008                     : locale.cpp.obj (.far:_ZZNSt3__234_GLOBAL__N__10_locale_cpp_a71832034makeINS_7codecvtIDiciEEjEERT_T0_E3buf)
                  118383b0    00000008                     : locale.cpp.obj (.far:_ZZNSt3__234_GLOBAL__N__10_locale_cpp_a71832034makeINS_7codecvtIDsciEEjEERT_T0_E3buf)
                  118383b8    00000008                     : locale.cpp.obj (.far:_ZZNSt3__234_GLOBAL__N__10_locale_cpp_a71832034makeINS_7codecvtIcciEEjEERT_T0_E3buf)
                  118383c0    00000008                     : locale.cpp.obj (.far:_ZZNSt3__234_GLOBAL__N__10_locale_cpp_a71832034makeINS_7collateIcEEjEERT_T0_E3buf)
                  118383c8    00000008                     : locale.cpp.obj (.far:_ZZNSt3__234_GLOBAL__N__10_locale_cpp_a71832034makeINS_7collateIwEEjEERT_T0_E3buf)
                  118383d0    00000008                     : locale.cpp.obj (.far:_ZZNSt3__234_GLOBAL__N__10_locale_cpp_a71832034makeINS_7num_getIcNS_19istreambuf_iteratorIcNS_11char_traitsIcEEEEEEjEERT_T0_E3buf)
                  118383d8    00000008                     : locale.cpp.obj (.far:_ZZNSt3__234_GLOBAL__N__10_locale_cpp_a71832034makeINS_7num_getIwNS_19istreambuf_iteratorIwNS_11char_traitsIwEEEEEEjEERT_T0_E3buf)
                  118383e0    00000008                     : locale.cpp.obj (.far:_ZZNSt3__234_GLOBAL__N__10_locale_cpp_a71832034makeINS_7num_putIcNS_19ostreambuf_iteratorIcNS_11char_traitsIcEEEEEEjEERT_T0_E3buf)
                  118383e8    00000008                     : locale.cpp.obj (.far:_ZZNSt3__234_GLOBAL__N__10_locale_cpp_a71832034makeINS_7num_putIwNS_19ostreambuf_iteratorIwNS_11char_traitsIwEEEEEEjEERT_T0_E3buf)
                  118383f0    00000008                     : locale.cpp.obj (.far:_ZZNSt3__234_GLOBAL__N__10_locale_cpp_a71832034makeINS_8messagesIcEEjEERT_T0_E3buf)
                  118383f8    00000008                     : locale.cpp.obj (.far:_ZZNSt3__234_GLOBAL__N__10_locale_cpp_a71832034makeINS_8messagesIwEEjEERT_T0_E3buf)
                  11838400    00000008                     : locale.cpp.obj (.far:_ZZNSt3__234_GLOBAL__N__10_locale_cpp_a71832034makeINS_9money_getIcNS_19istreambuf_iteratorIcNS_11char_traitsIcEEEEEEjEERT_T0_E3buf)
                  11838408    00000008                     : locale.cpp.obj (.far:_ZZNSt3__234_GLOBAL__N__10_locale_cpp_a71832034makeINS_9money_getIwNS_19istreambuf_iteratorIwNS_11char_traitsIwEEEEEEjEERT_T0_E3buf)
                  11838410    00000008                     : locale.cpp.obj (.far:_ZZNSt3__234_GLOBAL__N__10_locale_cpp_a71832034makeINS_9money_putIcNS_19ostreambuf_iteratorIcNS_11char_traitsIcEEEEEEjEERT_T0_E3buf)
                  11838418    00000008                     : locale.cpp.obj (.far:_ZZNSt3__234_GLOBAL__N__10_locale_cpp_a71832034makeINS_9money_putIwNS_19ostreambuf_iteratorIwNS_11char_traitsIwEEEEEEjEERT_T0_E3buf)
                  11838420    00000004                     : locale.cpp.obj (.far:buf$15)
                  11838424    00000004                     : locale.cpp.obj (.far:buf$16)
                  11838428    00000004                     : new.cpp.obj (.far)
                  1183842c    00000004                     : vla_alloc.c.obj (.far)
                  11838430    00000001                     : iostream.cpp.obj (.far:_ZNSt3__219__start_std_streamsE)

.neardata 
*          0    11838434    00000000     UNINITIALIZED

.rodata    0    11838434    00000000     UNINITIALIZED

.bss       0    11838434    00000004     UNINITIALIZED
                  11838434    00000004     (.common:__dso_handle)

.fardata   0    11838438    00000414     UNINITIALIZED
                  11838438    000001e0     rts6740_elf.lib : defs.c.obj (.fardata:_ftable)
                  11838618    000000a0                     : write.c.obj (.fardata:_stream)
                  118386b8    00000078                     : write.c.obj (.fardata:_device)
                  11838730    00000010                     : tmzone.c.obj (.fardata:_tz)
                  11838740    0000000c                     : exit.c.obj (.fardata)
                  1183874c    00000008                     : locale.cpp.obj (.fardata:_ZNSt3__210moneypunctIcLb0EE2idE)
                  11838754    00000008                     : locale.cpp.obj (.fardata:_ZNSt3__210moneypunctIcLb1EE2idE)
                  1183875c    00000008                     : locale.cpp.obj (.fardata:_ZNSt3__210moneypunctIwLb0EE2idE)
                  11838764    00000008                     : locale.cpp.obj (.fardata:_ZNSt3__210moneypunctIwLb1EE2idE)
                  1183876c    00000008                     : locale.cpp.obj (.fardata:_ZNSt3__25ctypeIcE2idE)
                  11838774    00000008                     : locale.cpp.obj (.fardata:_ZNSt3__25ctypeIwE2idE)
                  1183877c    00000008                     : locale.cpp.obj (.fardata:_ZNSt3__27codecvtIDiciE2idE)
                  11838784    00000008                     : locale.cpp.obj (.fardata:_ZNSt3__27codecvtIDsciE2idE)
                  1183878c    00000008                     : locale.cpp.obj (.fardata:_ZNSt3__27codecvtIcciE2idE)
                  11838794    00000008                     : locale.cpp.obj (.fardata:_ZNSt3__27codecvtIwciE2idE)
                  1183879c    00000008                     : locale.cpp.obj (.fardata:_ZNSt3__27collateIcE2idE)
                  118387a4    00000008                     : locale.cpp.obj (.fardata:_ZNSt3__27collateIwE2idE)
                  118387ac    00000008                     : locale.cpp.obj (.fardata:_ZNSt3__27num_getIcNS_19istreambuf_iteratorIcNS_11char_traitsIcEEEEE2idE)
                  118387b4    00000008                     : locale.cpp.obj (.fardata:_ZNSt3__27num_getIwNS_19istreambuf_iteratorIwNS_11char_traitsIwEEEEE2idE)
                  118387bc    00000008                     : locale.cpp.obj (.fardata:_ZNSt3__27num_putIcNS_19ostreambuf_iteratorIcNS_11char_traitsIcEEEEE2idE)
                  118387c4    00000008                     : locale.cpp.obj (.fardata:_ZNSt3__27num_putIwNS_19ostreambuf_iteratorIwNS_11char_traitsIwEEEEE2idE)
                  118387cc    00000008                     : locale.cpp.obj (.fardata:_ZNSt3__28messagesIcE2idE)
                  118387d4    00000008                     : locale.cpp.obj (.fardata:_ZNSt3__28messagesIwE2idE)
                  118387dc    00000008                     : locale.cpp.obj (.fardata:_ZNSt3__28numpunctIcE2idE)
                  118387e4    00000008                     : locale.cpp.obj (.fardata:_ZNSt3__28numpunctIwE2idE)
                  118387ec    00000008                     : locale.cpp.obj (.fardata:_ZNSt3__28time_getIcNS_19istreambuf_iteratorIcNS_11char_traitsIcEEEEE2idE)
                  118387f4    00000008                     : locale.cpp.obj (.fardata:_ZNSt3__28time_getIwNS_19istreambuf_iteratorIwNS_11char_traitsIwEEEEE2idE)
                  118387fc    00000008                     : locale.cpp.obj (.fardata:_ZNSt3__28time_putIcNS_19ostreambuf_iteratorIcNS_11char_traitsIcEEEEE2idE)
                  11838804    00000008                     : locale.cpp.obj (.fardata:_ZNSt3__28time_putIwNS_19ostreambuf_iteratorIwNS_11char_traitsIwEEEEE2idE)
                  1183880c    00000008                     : locale.cpp.obj (.fardata:_ZNSt3__29money_getIcNS_19istreambuf_iteratorIcNS_11char_traitsIcEEEEE2idE)
                  11838814    00000008                     : locale.cpp.obj (.fardata:_ZNSt3__29money_getIwNS_19istreambuf_iteratorIwNS_11char_traitsIwEEEEE2idE)
                  1183881c    00000008                     : locale.cpp.obj (.fardata:_ZNSt3__29money_putIcNS_19ostreambuf_iteratorIcNS_11char_traitsIcEEEEE2idE)
                  11838824    00000008                     : locale.cpp.obj (.fardata:_ZNSt3__29money_putIwNS_19ostreambuf_iteratorIwNS_11char_traitsIwEEEEE2idE)
                  1183882c    00000008                     : memory.c.obj (.fardata)
                  11838834    00000004                     : _lock.c.obj (.fardata:_lock)
                  11838838    00000004                     : _lock.c.obj (.fardata:_unlock)
                  1183883c    00000004                     : defs.c.obj (.fardata)
                  11838840    00000004                     : dtor_list.c.obj (.fardata)
                  11838844    00000004                     : errno.c.obj (.fardata)
                  11838848    00000004                     : locale.cpp.obj (.fardata)

.switch    0    1183884c    000003e4     
                  1183884c    00000158     rts6740_elf.lib : strftime.c.obj (.switch:strftime)
                  118389a4    000000d4                     : locale.cpp.obj (.switch:_ZNKSt3__28time_getIcNS_19istreambuf_iteratorIcNS_11char_traitsIcEEEEE6do_getES4_S4_RNS_8ios_baseERjP2tmcc)
                  11838a78    000000d4                     : locale.cpp.obj (.switch:_ZNKSt3__28time_getIwNS_19istreambuf_iteratorIwNS_11char_traitsIwEEEEE6do_getES4_S4_RNS_8ios_baseERjP2tmcc)
                  11838b4c    0000005c                     : _scanfi.c.obj (.switch:__TI_scanfi)
                  11838ba8    00000038                     : _printfi.c.obj (.switch:__TI_printfi)
                  11838be0    00000014                     : locale.cpp.obj (.switch:_ZNSt3__211__money_putIcE8__formatEPcRS2_S3_jPKcS5_RKNS_5ctypeIcEEbRKNS_10money_base7patternEccRKNS_12basic_stringIcNS_11char_traitsIcEENS_9allocatorIcEEEESL_SL_i)
                  11838bf4    00000014                     : locale.cpp.obj (.switch:_ZNSt3__211__money_putIwE8__formatEPwRS2_S3_jPKwS5_RKNS_5ctypeIwEEbRKNS_10money_base7patternEwwRKNS_12basic_stringIcNS_11char_traitsIcEENS_9allocatorIcEEEERKNSE_IwNSF_IwEENSH_IwEEEESQ_i)
                  11838c08    00000014                     : locale.cpp.obj (.switch:_ZNSt3__29money_getIcNS_19istreambuf_iteratorIcNS_11char_traitsIcEEEEE8__do_getERS4_S4_bRKNS_6localeEjRjRbRKNS_5ctypeIcEERNS_10unique_ptrIcPFvPvEEERPcSM_)
                  11838c1c    00000014                     : locale.cpp.obj (.switch:_ZNSt3__29money_getIwNS_19istreambuf_iteratorIwNS_11char_traitsIwEEEEE8__do_getERS4_S4_bRKNS_6localeEjRjRbRKNS_5ctypeIwEERNS_10unique_ptrIwPFvPvEEERPwSM_)

.cinit     0    11838d50    000000b8     
                  11838d50    00000081     (.cinit..fardata.load) [load image, compression = rle]
                  11838dd1    0000000b     (.cinit..far.load) [load image, compression = rle]
                  11838ddc    00000009     (.cinit..bss.load) [load image, compression = rle]
                  11838de5    00000003     --HOLE-- [fill = 0]
                  11838de8    00000008     (__TI_handler_table)
                  11838df0    00000018     (__TI_cinit_table)

MODULE SUMMARY

       Module                       code     ro data   rw data
       ------                       ----     -------   -------
    .\
       main.obj                     2464     36        0      
    +--+----------------------------+--------+---------+---------+
       Total:                       2464     36        0      
                                                              
    C:\ti\ti-cgt-c6000_8.3.12\lib\rts6740_elf.lib
       locale.cpp.obj               125376   6468      2412   
       _printfi.c.obj               13664    92        0      
       _scanfi.c.obj                9056     121       0      
       string.cpp.obj               8640     105       0      
       iostream.cpp.obj             6752     482       1009   
       ios.cpp.obj                  7168     900       0      
       strftime.c.obj               3072     676       0      
       memory.c.obj                 2624     0         8      
       strtod.c.obj                 2336     200       0      
       strtof.c.obj                 2272     88        0      
       vla_alloc.c.obj              1728     0         28     
       divd.c.obj                   1536     0         0      
       none_mb.c.obj                1248     0         0      
       strtoll.c.obj                1216     0         0      
       strtoull.c.obj               1088     0         0      
       fwrite.c.obj                 960      0         0      
       strtol.c.obj                 928      0         0      
       defs.c.obj                   0        0         804    
       imath64.c.obj                800      0         0      
       strtoul.c.obj                768      0         0      
       divf.c.obj                   672      0         0      
       sscanf.c.obj                 576      0         0      
       trgmsg.c.obj                 224      0         288    
       typeinfo.c.obj               288      193       0      
       frexp.c.obj                  448      0         0      
       getdevice.c.obj              448      0         0      
       imath40.c.obj                448      0         0      
       ldexp.c.obj                  448      0         0      
       ldexpf.c.obj                 448      0         0      
       setvbuf.c.obj                448      0         0      
       dtor_list.c.obj              416      0         8      
       fflush.c.obj                 416      0         0      
       hostrename.c.obj             416      0         0      
       vec_newdel.c.obj             416      0         0      
       _io_perm.c.obj               384      0         0      
       write.c.obj                  96       0         280    
       _bufread.c.obj               352      0         0      
       fgetc.c.obj                  320      0         0      
       snprintf.c.obj               320      0         0      
       vsnprintf.c.obj              320      0         0      
       copy_decompress_rle.c.obj    288      0         0      
       exit.c.obj                   256      0         12     
       new.cpp.obj                  256      0         4      
       ctype.c.obj                  0        257       0      
       atoi.c.obj                   256      0         0      
       autoinit.c.obj               256      0         0      
       fclose.c.obj                 256      0         0      
       fseek.c.obj                  256      0         0      
       ungetc.c.obj                 256      0         0      
       hostopen.c.obj               224      0         8      
       _ltoa.c.obj                  224      0         0      
       close.c.obj                  224      0         0      
       divi.asm.obj                 224      0         0      
       hostlseek.c.obj              224      0         0      
       hostwrite.c.obj              224      0         0      
       llshift.c.obj                224      0         0      
       memset.c.obj                 224      0         0      
       divu.asm.obj                 192      0         0      
       hostread.c.obj               192      0         0      
       hostunlink.c.obj             192      0         0      
       tls.c.obj                    192      0         0      
       fopen.c.obj                  160      0         0      
       hostclose.c.obj              160      0         0      
       locale_stdio.c.obj           160      0         0      
       locale_stdlib.c.obj          160      0         0      
       memcpy64.asm.obj             160      0         0      
       memmov.c.obj                 160      0         0      
       remu.asm.obj                 160      0         0      
       vasprintf.c.obj              160      0         0      
       boot.c.obj                   128      0         0      
       unlink.c.obj                 128      0         0      
       wmemset.c.obj                128      0         0      
       memory.cpp.obj               64       53        0      
       lseek.c.obj                  96       0         0      
       memccpy.c.obj                96       0         0      
       mutex.cpp.obj                96       0         0      
       read.c.obj                   96       0         0      
       strcpy.c.obj                 96       0         0      
       args_main.c.obj              64       0         0      
       asprintf.c.obj               64       0         0      
       frcmpyd_div.c.obj            64       0         0      
       guard.c.obj                  64       0         0      
       isinf.c.obj                  64       0         0      
       push.asm.obj                 64       0         0      
       strlen.c.obj                 64       0         0      
       wcslen.c.obj                 64       0         0      
       wctype.c.obj                 64       0         0      
       xlocale.c.obj                64       0         0      
       stdlib_typeinfo.cpp.obj      32       21        0      
       _lock.c.obj                  32       0         8      
       vector.cpp.obj               32       7         0      
       errno.c.obj                  32       0         4      
       copy_decompress_none.c.obj   32       0         0      
       error.c.obj                  32       0         0      
       exception.cpp.obj            32       0         0      
       locale_time.c.obj            32       0         0      
       pre_init.c.obj               32       0         0      
       pure_virt.c.obj              32       0         0      
       signbit.c.obj                32       0         0      
       startup.c.obj                32       0         0      
       wmemcpy.c.obj                32       0         0      
       wmemmove.c.obj               32       0         0      
       tmzone.c.obj                 0        0         16     
    +--+----------------------------+--------+---------+---------+
       Total:                       207072   9663      4889   
                                                              
       Heap:                        0        0         4096   
       Stack:                       0        0         4096   
       Linker Generated:            0        181       0      
    +--+----------------------------+--------+---------+---------+
       Grand Total:                 209536   9880      13081  


LINKER GENERATED COPY TABLES

__TI_cinit_table @ 11838df0 records: 3, size/record: 8, table size: 24
	.fardata: load addr=11838d50, load size=00000081 bytes, run addr=11838438, run size=00000414 bytes, compression=rle
	.far: load addr=11838dd1, load size=0000000b bytes, run addr=11837650, run size=00000de1 bytes, compression=rle
	.bss: load addr=11838ddc, load size=00000009 bytes, run addr=11838434, run size=00000004 bytes, compression=rle


LINKER GENERATED HANDLER TABLE

__TI_handler_table @ 11838de8 records: 2, size/record: 4, table size: 8
	index: 0, handler: __TI_decompress_rle24
	index: 1, handler: __TI_decompress_none


GLOBAL SYMBOLS: SORTED ALPHABETICALLY BY Name 

address   name                                                                                                                                                                                     
-------   ----                                                                                                                                                                                     
11832fe0  C$$EXIT                                                                                                                                                                                  
1182ee78  C$$IO$$                                                                                                                                                                                  
1182b340  HOSTclose                                                                                                                                                                                
11829020  HOSTlseek                                                                                                                                                                                
11829100  HOSTopen                                                                                                                                                                                 
11829f00  HOSTread                                                                                                                                                                                 
11822840  HOSTrename                                                                                                                                                                               
11829fc0  HOSTunlink                                                                                                                                                                               
118291e0  HOSTwrite                                                                                                                                                                                
1182a080  _Z23__finalize_destructionsPP20a_needed_destructionPv                                                                                                                                    
1182f2a0  _ZN10__cxxabiv117__class_type_infoD0Ev                                                                                                                                                   
11831320  _ZN10__cxxabiv117__class_type_infoD1Ev                                                                                                                                                   
11831320  _ZN10__cxxabiv117__class_type_infoD2Ev                                                                                                                                                   
1182f2e0  _ZN10__cxxabiv120__si_class_type_infoD0Ev                                                                                                                                                
11831340  _ZN10__cxxabiv120__si_class_type_infoD1Ev                                                                                                                                                
11831340  _ZN10__cxxabiv120__si_class_type_infoD2Ev                                                                                                                                                
1182f320  _ZN10__cxxabiv121__vmi_class_type_infoD0Ev                                                                                                                                               
11831360  _ZN10__cxxabiv121__vmi_class_type_infoD1Ev                                                                                                                                               
11831360  _ZN10__cxxabiv121__vmi_class_type_infoD2Ev                                                                                                                                               
11813b10  _ZN3LED10LEDControlENS_9LEDStatusE                                                                                                                                                       
11813924  _ZN3LEDC1ENS_7LEDTypeE                                                                                                                                                                   
11813924  _ZN3LEDC2ENS_7LEDTypeE                                                                                                                                                                   
11813a28  _ZN3LEDD1Ev                                                                                                                                                                              
11813a28  _ZN3LEDD2Ev                                                                                                                                                                              
1182c920  _ZNKSt3__210__time_put8__do_putEPcRS1_PK2tmcc                                                                                                                                            
11820c40  _ZNKSt3__210__time_put8__do_putEPwRS1_PK2tmcc                                                                                                                                            
1182f360  _ZNKSt3__210moneypunctIcLb0EE11do_groupingEv                                                                                                                                             
1182f3a0  _ZNKSt3__210moneypunctIcLb0EE13do_neg_formatEv                                                                                                                                           
1182f3e0  _ZNKSt3__210moneypunctIcLb0EE13do_pos_formatEv                                                                                                                                           
1182f420  _ZNKSt3__210moneypunctIcLb0EE14do_curr_symbolEv                                                                                                                                          
118313a0  _ZNKSt3__210moneypunctIcLb0EE14do_frac_digitsEv                                                                                                                                          
118313c0  _ZNKSt3__210moneypunctIcLb0EE16do_decimal_pointEv                                                                                                                                        
1182f460  _ZNKSt3__210moneypunctIcLb0EE16do_negative_signEv                                                                                                                                        
1182f4a0  _ZNKSt3__210moneypunctIcLb0EE16do_positive_signEv                                                                                                                                        
118313e0  _ZNKSt3__210moneypunctIcLb0EE16do_thousands_sepEv                                                                                                                                        
1182f4e0  _ZNKSt3__210moneypunctIcLb1EE11do_groupingEv                                                                                                                                             
1182f520  _ZNKSt3__210moneypunctIcLb1EE13do_neg_formatEv                                                                                                                                           
1182f560  _ZNKSt3__210moneypunctIcLb1EE13do_pos_formatEv                                                                                                                                           
1182f5a0  _ZNKSt3__210moneypunctIcLb1EE14do_curr_symbolEv                                                                                                                                          
11831400  _ZNKSt3__210moneypunctIcLb1EE14do_frac_digitsEv                                                                                                                                          
11831420  _ZNKSt3__210moneypunctIcLb1EE16do_decimal_pointEv                                                                                                                                        
1182f5e0  _ZNKSt3__210moneypunctIcLb1EE16do_negative_signEv                                                                                                                                        
1182f620  _ZNKSt3__210moneypunctIcLb1EE16do_positive_signEv                                                                                                                                        
11831440  _ZNKSt3__210moneypunctIcLb1EE16do_thousands_sepEv                                                                                                                                        
1182f660  _ZNKSt3__210moneypunctIwLb0EE11do_groupingEv                                                                                                                                             
1182f6a0  _ZNKSt3__210moneypunctIwLb0EE13do_neg_formatEv                                                                                                                                           
1182f6e0  _ZNKSt3__210moneypunctIwLb0EE13do_pos_formatEv                                                                                                                                           
1182f720  _ZNKSt3__210moneypunctIwLb0EE14do_curr_symbolEv                                                                                                                                          
11831460  _ZNKSt3__210moneypunctIwLb0EE14do_frac_digitsEv                                                                                                                                          
11831480  _ZNKSt3__210moneypunctIwLb0EE16do_decimal_pointEv                                                                                                                                        
1182f760  _ZNKSt3__210moneypunctIwLb0EE16do_negative_signEv                                                                                                                                        
1182f7a0  _ZNKSt3__210moneypunctIwLb0EE16do_positive_signEv                                                                                                                                        
118314a0  _ZNKSt3__210moneypunctIwLb0EE16do_thousands_sepEv                                                                                                                                        
1182f7e0  _ZNKSt3__210moneypunctIwLb1EE11do_groupingEv                                                                                                                                             
1182f820  _ZNKSt3__210moneypunctIwLb1EE13do_neg_formatEv                                                                                                                                           
1182f860  _ZNKSt3__210moneypunctIwLb1EE13do_pos_formatEv                                                                                                                                           
1182f8a0  _ZNKSt3__210moneypunctIwLb1EE14do_curr_symbolEv                                                                                                                                          
118314c0  _ZNKSt3__210moneypunctIwLb1EE14do_frac_digitsEv                                                                                                                                          
118314e0  _ZNKSt3__210moneypunctIwLb1EE16do_decimal_pointEv                                                                                                                                        
1182f8e0  _ZNKSt3__210moneypunctIwLb1EE16do_negative_signEv                                                                                                                                        
1182f920  _ZNKSt3__210moneypunctIwLb1EE16do_positive_signEv                                                                                                                                        
11831500  _ZNKSt3__210moneypunctIwLb1EE16do_thousands_sepEv                                                                                                                                        
1182f960  _ZNKSt3__212basic_stringIcNS_11char_traitsIcEENS_9allocatorIcEEE4dataEv                                                                                                                  
11831520  _ZNKSt3__213basic_ostreamIcNS_11char_traitsIcEEE6sentrycvbEv                                                                                                                             
118292c0  _ZNKSt3__219istreambuf_iteratorIcNS_11char_traitsIcEEE5equalERKS3_                                                                                                                       
118293a0  _ZNKSt3__219istreambuf_iteratorIwNS_11char_traitsIwEEE5equalERKS3_                                                                                                                       
1182f9a0  _ZNKSt3__219ostreambuf_iteratorIcNS_11char_traitsIcEEE6failedEv                                                                                                                          
11820e00  _ZNKSt3__220__time_get_c_storageIcE3__XEv                                                                                                                                                
11820fc0  _ZNKSt3__220__time_get_c_storageIcE3__cEv                                                                                                                                                
11821180  _ZNKSt3__220__time_get_c_storageIcE3__rEv                                                                                                                                                
11821340  _ZNKSt3__220__time_get_c_storageIcE3__xEv                                                                                                                                                
118266c0  _ZNKSt3__220__time_get_c_storageIcE7__am_pmEv                                                                                                                                            
1181e960  _ZNKSt3__220__time_get_c_storageIcE7__weeksEv                                                                                                                                            
1181aa00  _ZNKSt3__220__time_get_c_storageIcE8__monthsEv                                                                                                                                           
11821500  _ZNKSt3__220__time_get_c_storageIwE3__XEv                                                                                                                                                
118216c0  _ZNKSt3__220__time_get_c_storageIwE3__cEv                                                                                                                                                
11821880  _ZNKSt3__220__time_get_c_storageIwE3__rEv                                                                                                                                                
11821a40  _ZNKSt3__220__time_get_c_storageIwE3__xEv                                                                                                                                                
118267e0  _ZNKSt3__220__time_get_c_storageIwE7__am_pmEv                                                                                                                                            
1181eba0  _ZNKSt3__220__time_get_c_storageIwE7__weeksEv                                                                                                                                            
1181ad20  _ZNKSt3__220__time_get_c_storageIwE8__monthsEv                                                                                                                                           
11831540  _ZNKSt3__220__vector_base_commonILb1EE20__throw_length_errorEv                                                                                                                           
11831560  _ZNKSt3__221__basic_string_commonILb1EE20__throw_length_errorEv                                                                                                                          
11831580  _ZNKSt3__222__compressed_pair_elemINS_12basic_stringIcNS_11char_traitsIcEENS_9allocatorIcEEE5__repELi0ELb0EE5__getEv                                                                     
118315a0  _ZNKSt3__222__compressed_pair_elemINS_12basic_stringIwNS_11char_traitsIwEENS_9allocatorIwEEE5__repELi0ELb0EE5__getEv                                                                     
1182a200  _ZNKSt3__25ctypeIcE10do_tolowerEPcPKc                                                                                                                                                    
1182c9a0  _ZNKSt3__25ctypeIcE10do_tolowerEc                                                                                                                                                        
1182a2c0  _ZNKSt3__25ctypeIcE10do_toupperEPcPKc                                                                                                                                                    
1182ca20  _ZNKSt3__25ctypeIcE10do_toupperEc                                                                                                                                                        
118315c0  _ZNKSt3__25ctypeIcE5widenEPKcS3_Pc                                                                                                                                                       
1182f9e0  _ZNKSt3__25ctypeIcE5widenEc                                                                                                                                                              
118315e0  _ZNKSt3__25ctypeIcE6narrowEcc                                                                                                                                                            
11831600  _ZNKSt3__25ctypeIcE7toupperEc                                                                                                                                                            
1182caa0  _ZNKSt3__25ctypeIcE8do_widenEPKcS3_Pc                                                                                                                                                    
11831620  _ZNKSt3__25ctypeIcE8do_widenEc                                                                                                                                                           
1182b3e0  _ZNKSt3__25ctypeIcE9do_narrowEPKcS3_cPc                                                                                                                                                  
11831640  _ZNKSt3__25ctypeIcE9do_narrowEcc                                                                                                                                                         
1182cb20  _ZNKSt3__25ctypeIwE10do_scan_isEhPKwS3_                                                                                                                                                  
1182a380  _ZNKSt3__25ctypeIwE10do_tolowerEPwPKw                                                                                                                                                    
1182cba0  _ZNKSt3__25ctypeIwE10do_tolowerEw                                                                                                                                                        
1182a440  _ZNKSt3__25ctypeIwE10do_toupperEPwPKw                                                                                                                                                    
1182cc20  _ZNKSt3__25ctypeIwE10do_toupperEw                                                                                                                                                        
1182cca0  _ZNKSt3__25ctypeIwE11do_scan_notEhPKwS3_                                                                                                                                                 
11831660  _ZNKSt3__25ctypeIwE2isEhw                                                                                                                                                                
1182dc20  _ZNKSt3__25ctypeIwE5do_isEPKwS3_Ph                                                                                                                                                       
1182fa20  _ZNKSt3__25ctypeIwE5do_isEhw                                                                                                                                                             
11831680  _ZNKSt3__25ctypeIwE5widenEPKcS3_Pw                                                                                                                                                       
118316a0  _ZNKSt3__25ctypeIwE5widenEc                                                                                                                                                              
1182fa60  _ZNKSt3__25ctypeIwE8do_widenEPKcS3_Pw                                                                                                                                                    
118316c0  _ZNKSt3__25ctypeIwE8do_widenEc                                                                                                                                                           
1182dc80  _ZNKSt3__25ctypeIwE9do_narrowEPKwS3_cPc                                                                                                                                                  
118316e0  _ZNKSt3__25ctypeIwE9do_narrowEwc                                                                                                                                                         
11831700  _ZNKSt3__26locale5__imp9use_facetEl                                                                                                                                                      
1182faa0  _ZNKSt3__26locale9use_facetERNS0_2idE                                                                                                                                                    
11831720  _ZNKSt3__26vectorIPNS_6locale5facetENS_15__sso_allocatorIS3_Lj28EEEE8max_sizeEv                                                                                                          
11831740  _ZNKSt3__27codecvtIDiciE10do_unshiftERiPcS3_RS3_                                                                                                                                         
11831760  _ZNKSt3__27codecvtIDiciE11do_encodingEv                                                                                                                                                  
11831780  _ZNKSt3__27codecvtIDiciE13do_max_lengthEv                                                                                                                                                
118317a0  _ZNKSt3__27codecvtIDiciE16do_always_noconvEv                                                                                                                                             
1182cd20  _ZNKSt3__27codecvtIDiciE5do_inERiPKcS4_RS4_PDiS6_RS6_                                                                                                                                    
1182cda0  _ZNKSt3__27codecvtIDiciE6do_outERiPKDiS4_RS4_PcS6_RS6_                                                                                                                                   
1182fae0  _ZNKSt3__27codecvtIDiciE9do_lengthERiPKcS4_j                                                                                                                                             
118317c0  _ZNKSt3__27codecvtIDsciE10do_unshiftERiPcS3_RS3_                                                                                                                                         
118317e0  _ZNKSt3__27codecvtIDsciE11do_encodingEv                                                                                                                                                  
11831800  _ZNKSt3__27codecvtIDsciE13do_max_lengthEv                                                                                                                                                
11831820  _ZNKSt3__27codecvtIDsciE16do_always_noconvEv                                                                                                                                             
1182ce20  _ZNKSt3__27codecvtIDsciE5do_inERiPKcS4_RS4_PDsS6_RS6_                                                                                                                                    
1182cea0  _ZNKSt3__27codecvtIDsciE6do_outERiPKDsS4_RS4_PcS6_RS6_                                                                                                                                   
1182fb20  _ZNKSt3__27codecvtIDsciE9do_lengthERiPKcS4_j                                                                                                                                             
11831840  _ZNKSt3__27codecvtIcciE10do_unshiftERiPcS3_RS3_                                                                                                                                          
11831860  _ZNKSt3__27codecvtIcciE11do_encodingEv                                                                                                                                                   
11831880  _ZNKSt3__27codecvtIcciE13do_max_lengthEv                                                                                                                                                 
118318a0  _ZNKSt3__27codecvtIcciE16do_always_noconvEv                                                                                                                                              
118318c0  _ZNKSt3__27codecvtIcciE3outERiPKcS4_RS4_PcS6_RS6_                                                                                                                                        
118318e0  _ZNKSt3__27codecvtIcciE5do_inERiPKcS4_RS4_PcS6_RS6_                                                                                                                                      
11831900  _ZNKSt3__27codecvtIcciE6do_outERiPKcS4_RS4_PcS6_RS6_                                                                                                                                     
1182fb60  _ZNKSt3__27codecvtIcciE9do_lengthERiPKcS4_j                                                                                                                                              
1182b480  _ZNKSt3__27codecvtIwciE10do_unshiftERiPcS3_RS3_                                                                                                                                          
1182cf20  _ZNKSt3__27codecvtIwciE11do_encodingEv                                                                                                                                                   
11831920  _ZNKSt3__27codecvtIwciE13always_noconvEv                                                                                                                                                 
1182fba0  _ZNKSt3__27codecvtIwciE13do_max_lengthEv                                                                                                                                                 
11831940  _ZNKSt3__27codecvtIwciE16do_always_noconvEv                                                                                                                                              
11831960  _ZNKSt3__27codecvtIwciE3outERiPKwS4_RS4_PcS6_RS6_                                                                                                                                        
1181b680  _ZNKSt3__27codecvtIwciE5do_inERiPKcS4_RS4_PwS6_RS6_                                                                                                                                      
1181b980  _ZNKSt3__27codecvtIwciE6do_outERiPKwS4_RS4_PcS6_RS6_                                                                                                                                     
11829480  _ZNKSt3__27codecvtIwciE9do_lengthERiPKcS4_j                                                                                                                                              
1182b520  _ZNKSt3__27collateIcE10do_compareEPKcS3_S3_S3_                                                                                                                                           
118229e0  _ZNKSt3__27collateIcE12do_transformEPKcS3_                                                                                                                                               
1181f260  _ZNKSt3__27collateIcE7do_hashEPKcS3_                                                                                                                                                     
1182b5c0  _ZNKSt3__27collateIwE10do_compareEPKwS3_S3_S3_                                                                                                                                           
118204c0  _ZNKSt3__27collateIwE12do_transformEPKwS3_                                                                                                                                               
1182cfa0  _ZNKSt3__27collateIwE7do_hashEPKwS3_                                                                                                                                                     
11817000  _ZNKSt3__27num_getIcNS_19istreambuf_iteratorIcNS_11char_traitsIcEEEEE15__do_get_signedIlEES4_S4_S4_RNS_8ios_baseERjRT_                                                                   
11817380  _ZNKSt3__27num_getIcNS_19istreambuf_iteratorIcNS_11char_traitsIcEEEEE15__do_get_signedIxEES4_S4_S4_RNS_8ios_baseERjRT_                                                                   
11817700  _ZNKSt3__27num_getIcNS_19istreambuf_iteratorIcNS_11char_traitsIcEEEEE17__do_get_unsignedIjEES4_S4_S4_RNS_8ios_baseERjRT_                                                                 
11817a80  _ZNKSt3__27num_getIcNS_19istreambuf_iteratorIcNS_11char_traitsIcEEEEE17__do_get_unsignedImEES4_S4_S4_RNS_8ios_baseERjRT_                                                                 
11817e00  _ZNKSt3__27num_getIcNS_19istreambuf_iteratorIcNS_11char_traitsIcEEEEE17__do_get_unsignedItEES4_S4_S4_RNS_8ios_baseERjRT_                                                                 
11818180  _ZNKSt3__27num_getIcNS_19istreambuf_iteratorIcNS_11char_traitsIcEEEEE17__do_get_unsignedIyEES4_S4_S4_RNS_8ios_baseERjRT_                                                                 
11818be0  _ZNKSt3__27num_getIcNS_19istreambuf_iteratorIcNS_11char_traitsIcEEEEE23__do_get_floating_pointIdEES4_S4_S4_RNS_8ios_baseERjRT_                                                           
11818f40  _ZNKSt3__27num_getIcNS_19istreambuf_iteratorIcNS_11char_traitsIcEEEEE23__do_get_floating_pointIeEES4_S4_S4_RNS_8ios_baseERjRT_                                                           
118192a0  _ZNKSt3__27num_getIcNS_19istreambuf_iteratorIcNS_11char_traitsIcEEEEE23__do_get_floating_pointIfEES4_S4_S4_RNS_8ios_baseERjRT_                                                           
11818500  _ZNKSt3__27num_getIcNS_19istreambuf_iteratorIcNS_11char_traitsIcEEEEE6do_getES4_S4_RNS_8ios_baseERjRPv                                                                                   
118206a0  _ZNKSt3__27num_getIcNS_19istreambuf_iteratorIcNS_11char_traitsIcEEEEE6do_getES4_S4_RNS_8ios_baseERjRb                                                                                    
11831980  _ZNKSt3__27num_getIcNS_19istreambuf_iteratorIcNS_11char_traitsIcEEEEE6do_getES4_S4_RNS_8ios_baseERjRd                                                                                    
118319a0  _ZNKSt3__27num_getIcNS_19istreambuf_iteratorIcNS_11char_traitsIcEEEEE6do_getES4_S4_RNS_8ios_baseERjRe                                                                                    
118319c0  _ZNKSt3__27num_getIcNS_19istreambuf_iteratorIcNS_11char_traitsIcEEEEE6do_getES4_S4_RNS_8ios_baseERjRf                                                                                    
118319e0  _ZNKSt3__27num_getIcNS_19istreambuf_iteratorIcNS_11char_traitsIcEEEEE6do_getES4_S4_RNS_8ios_baseERjRl                                                                                    
11831a00  _ZNKSt3__27num_getIcNS_19istreambuf_iteratorIcNS_11char_traitsIcEEEEE6do_getES4_S4_RNS_8ios_baseERjRm                                                                                    
11831a20  _ZNKSt3__27num_getIcNS_19istreambuf_iteratorIcNS_11char_traitsIcEEEEE6do_getES4_S4_RNS_8ios_baseERjRt                                                                                    
11831a40  _ZNKSt3__27num_getIcNS_19istreambuf_iteratorIcNS_11char_traitsIcEEEEE6do_getES4_S4_RNS_8ios_baseERjRx                                                                                    
11831a60  _ZNKSt3__27num_getIcNS_19istreambuf_iteratorIcNS_11char_traitsIcEEEEE6do_getES4_S4_RNS_8ios_baseERjRy                                                                                    
11831a80  _ZNKSt3__27num_getIcNS_19istreambuf_iteratorIcNS_11char_traitsIcEEEEE6do_getES4_S4_RNS_8ios_baseERjS8_                                                                                   
11813fe0  _ZNKSt3__27num_getIwNS_19istreambuf_iteratorIwNS_11char_traitsIwEEEEE15__do_get_signedIlEES4_S4_S4_RNS_8ios_baseERjRT_                                                                   
118143a0  _ZNKSt3__27num_getIwNS_19istreambuf_iteratorIwNS_11char_traitsIwEEEEE15__do_get_signedIxEES4_S4_S4_RNS_8ios_baseERjRT_                                                                   
11814760  _ZNKSt3__27num_getIwNS_19istreambuf_iteratorIwNS_11char_traitsIwEEEEE17__do_get_unsignedIjEES4_S4_S4_RNS_8ios_baseERjRT_                                                                 
11814b20  _ZNKSt3__27num_getIwNS_19istreambuf_iteratorIwNS_11char_traitsIwEEEEE17__do_get_unsignedImEES4_S4_S4_RNS_8ios_baseERjRT_                                                                 
11814ee0  _ZNKSt3__27num_getIwNS_19istreambuf_iteratorIwNS_11char_traitsIwEEEEE17__do_get_unsignedItEES4_S4_S4_RNS_8ios_baseERjRT_                                                                 
118152a0  _ZNKSt3__27num_getIwNS_19istreambuf_iteratorIwNS_11char_traitsIwEEEEE17__do_get_unsignedIyEES4_S4_S4_RNS_8ios_baseERjRT_                                                                 
11819600  _ZNKSt3__27num_getIwNS_19istreambuf_iteratorIwNS_11char_traitsIwEEEEE23__do_get_floating_pointIdEES4_S4_S4_RNS_8ios_baseERjRT_                                                           
11819960  _ZNKSt3__27num_getIwNS_19istreambuf_iteratorIwNS_11char_traitsIwEEEEE23__do_get_floating_pointIeEES4_S4_S4_RNS_8ios_baseERjRT_                                                           
11819cc0  _ZNKSt3__27num_getIwNS_19istreambuf_iteratorIwNS_11char_traitsIwEEEEE23__do_get_floating_pointIfEES4_S4_S4_RNS_8ios_baseERjRT_                                                           
118161a0  _ZNKSt3__27num_getIwNS_19istreambuf_iteratorIwNS_11char_traitsIwEEEEE6do_getES4_S4_RNS_8ios_baseERjRPv                                                                                   
11820880  _ZNKSt3__27num_getIwNS_19istreambuf_iteratorIwNS_11char_traitsIwEEEEE6do_getES4_S4_RNS_8ios_baseERjRb                                                                                    
11831aa0  _ZNKSt3__27num_getIwNS_19istreambuf_iteratorIwNS_11char_traitsIwEEEEE6do_getES4_S4_RNS_8ios_baseERjRd                                                                                    
11831ac0  _ZNKSt3__27num_getIwNS_19istreambuf_iteratorIwNS_11char_traitsIwEEEEE6do_getES4_S4_RNS_8ios_baseERjRe                                                                                    
11831ae0  _ZNKSt3__27num_getIwNS_19istreambuf_iteratorIwNS_11char_traitsIwEEEEE6do_getES4_S4_RNS_8ios_baseERjRf                                                                                    
11831b00  _ZNKSt3__27num_getIwNS_19istreambuf_iteratorIwNS_11char_traitsIwEEEEE6do_getES4_S4_RNS_8ios_baseERjRl                                                                                    
11831b20  _ZNKSt3__27num_getIwNS_19istreambuf_iteratorIwNS_11char_traitsIwEEEEE6do_getES4_S4_RNS_8ios_baseERjRm                                                                                    
11831b40  _ZNKSt3__27num_getIwNS_19istreambuf_iteratorIwNS_11char_traitsIwEEEEE6do_getES4_S4_RNS_8ios_baseERjRt                                                                                    
11831b60  _ZNKSt3__27num_getIwNS_19istreambuf_iteratorIwNS_11char_traitsIwEEEEE6do_getES4_S4_RNS_8ios_baseERjRx                                                                                    
11831b80  _ZNKSt3__27num_getIwNS_19istreambuf_iteratorIwNS_11char_traitsIwEEEEE6do_getES4_S4_RNS_8ios_baseERjRy                                                                                    
11831ba0  _ZNKSt3__27num_getIwNS_19istreambuf_iteratorIwNS_11char_traitsIwEEEEE6do_getES4_S4_RNS_8ios_baseERjS8_                                                                                   
11827c20  _ZNKSt3__27num_putIcNS_19ostreambuf_iteratorIcNS_11char_traitsIcEEEEE6do_putES4_RNS_8ios_baseEcPKv                                                                                       
11820a60  _ZNKSt3__27num_putIcNS_19ostreambuf_iteratorIcNS_11char_traitsIcEEEEE6do_putES4_RNS_8ios_baseEcb                                                                                         
1181c280  _ZNKSt3__27num_putIcNS_19ostreambuf_iteratorIcNS_11char_traitsIcEEEEE6do_putES4_RNS_8ios_baseEcd                                                                                         
1181c560  _ZNKSt3__27num_putIcNS_19ostreambuf_iteratorIcNS_11char_traitsIcEEEEE6do_putES4_RNS_8ios_baseEce                                                                                         
11823460  _ZNKSt3__27num_putIcNS_19ostreambuf_iteratorIcNS_11char_traitsIcEEEEE6do_putES4_RNS_8ios_baseEcl                                                                                         
118235c0  _ZNKSt3__27num_putIcNS_19ostreambuf_iteratorIcNS_11char_traitsIcEEEEE6do_putES4_RNS_8ios_baseEcm                                                                                         
11824780  _ZNKSt3__27num_putIcNS_19ostreambuf_iteratorIcNS_11char_traitsIcEEEEE6do_putES4_RNS_8ios_baseEcx                                                                                         
118248c0  _ZNKSt3__27num_putIcNS_19ostreambuf_iteratorIcNS_11char_traitsIcEEEEE6do_putES4_RNS_8ios_baseEcy                                                                                         
11826900  _ZNKSt3__27num_putIwNS_19ostreambuf_iteratorIwNS_11char_traitsIwEEEEE6do_putES4_RNS_8ios_baseEwPKv                                                                                       
1181f8c0  _ZNKSt3__27num_putIwNS_19ostreambuf_iteratorIwNS_11char_traitsIwEEEEE6do_putES4_RNS_8ios_baseEwb                                                                                         
1181c840  _ZNKSt3__27num_putIwNS_19ostreambuf_iteratorIwNS_11char_traitsIwEEEEE6do_putES4_RNS_8ios_baseEwd                                                                                         
1181b040  _ZNKSt3__27num_putIwNS_19ostreambuf_iteratorIwNS_11char_traitsIwEEEEE6do_putES4_RNS_8ios_baseEwe                                                                                         
11823720  _ZNKSt3__27num_putIwNS_19ostreambuf_iteratorIwNS_11char_traitsIwEEEEE6do_putES4_RNS_8ios_baseEwl                                                                                         
11823880  _ZNKSt3__27num_putIwNS_19ostreambuf_iteratorIwNS_11char_traitsIwEEEEE6do_putES4_RNS_8ios_baseEwm                                                                                         
11824a00  _ZNKSt3__27num_putIwNS_19ostreambuf_iteratorIwNS_11char_traitsIwEEEEE6do_putES4_RNS_8ios_baseEwx                                                                                         
11824b40  _ZNKSt3__27num_putIwNS_19ostreambuf_iteratorIwNS_11char_traitsIwEEEEE6do_putES4_RNS_8ios_baseEwy                                                                                         
11831bc0  _ZNKSt3__28ios_base5flagsEv                                                                                                                                                              
11831be0  _ZNKSt3__28ios_base5widthEv                                                                                                                                                              
11831c00  _ZNKSt3__28ios_base6getlocEv                                                                                                                                                             
11831c20  _ZNKSt3__28messagesIcE6do_getEiiiRKNS_12basic_stringIcNS_11char_traitsIcEENS_9allocatorIcEEEE                                                                                            
11831c40  _ZNKSt3__28messagesIcE7do_openERKNS_12basic_stringIcNS_11char_traitsIcEENS_9allocatorIcEEEERKNS_6localeE                                                                                 
11831c60  _ZNKSt3__28messagesIcE8do_closeEi                                                                                                                                                        
11831c80  _ZNKSt3__28messagesIwE6do_getEiiiRKNS_12basic_stringIwNS_11char_traitsIwEENS_9allocatorIwEEEE                                                                                            
11831ca0  _ZNKSt3__28messagesIwE7do_openERKNS_12basic_stringIcNS_11char_traitsIcEENS_9allocatorIcEEEERKNS_6localeE                                                                                 
11831cc0  _ZNKSt3__28messagesIwE8do_closeEi                                                                                                                                                        
11831ce0  _ZNKSt3__28numpunctIcE11do_groupingEv                                                                                                                                                    
11822b60  _ZNKSt3__28numpunctIcE11do_truenameEv                                                                                                                                                    
11822ce0  _ZNKSt3__28numpunctIcE12do_falsenameEv                                                                                                                                                   
11831d00  _ZNKSt3__28numpunctIcE13thousands_sepEv                                                                                                                                                  
11831d20  _ZNKSt3__28numpunctIcE16do_decimal_pointEv                                                                                                                                               
11831d40  _ZNKSt3__28numpunctIcE16do_thousands_sepEv                                                                                                                                               
11831d60  _ZNKSt3__28numpunctIcE8groupingEv                                                                                                                                                        
11831d80  _ZNKSt3__28numpunctIcE9falsenameEv                                                                                                                                                       
11831da0  _ZNKSt3__28numpunctIwE11do_groupingEv                                                                                                                                                    
11824c80  _ZNKSt3__28numpunctIwE11do_truenameEv                                                                                                                                                    
11824dc0  _ZNKSt3__28numpunctIwE12do_falsenameEv                                                                                                                                                   
11831dc0  _ZNKSt3__28numpunctIwE13thousands_sepEv                                                                                                                                                  
11831de0  _ZNKSt3__28numpunctIwE16do_decimal_pointEv                                                                                                                                               
11831e00  _ZNKSt3__28numpunctIwE16do_thousands_sepEv                                                                                                                                               
11831e20  _ZNKSt3__28numpunctIwE8groupingEv                                                                                                                                                        
11831e40  _ZNKSt3__28numpunctIwE9falsenameEv                                                                                                                                                       
1182dce0  _ZNKSt3__28time_getIcNS_19istreambuf_iteratorIcNS_11char_traitsIcEEEEE10__get_hourERiRS4_S4_RjRKNS_5ctypeIcEE                                                                            
1182dd40  _ZNKSt3__28time_getIcNS_19istreambuf_iteratorIcNS_11char_traitsIcEEEEE10__get_yearERiRS4_S4_RjRKNS_5ctypeIcEE                                                                            
11826a20  _ZNKSt3__28time_getIcNS_19istreambuf_iteratorIcNS_11char_traitsIcEEEEE11__get_am_pmERiRS4_S4_RjRKNS_5ctypeIcEE                                                                           
1182dda0  _ZNKSt3__28time_getIcNS_19istreambuf_iteratorIcNS_11char_traitsIcEEEEE11__get_monthERiRS4_S4_RjRKNS_5ctypeIcEE                                                                           
1182de00  _ZNKSt3__28time_getIcNS_19istreambuf_iteratorIcNS_11char_traitsIcEEEEE11__get_year4ERiRS4_S4_RjRKNS_5ctypeIcEE                                                                           
1182b660  _ZNKSt3__28time_getIcNS_19istreambuf_iteratorIcNS_11char_traitsIcEEEEE11do_get_dateES4_S4_RNS_8ios_baseERjP2tm                                                                           
1182fbe0  _ZNKSt3__28time_getIcNS_19istreambuf_iteratorIcNS_11char_traitsIcEEEEE11do_get_timeES4_S4_RNS_8ios_baseERjP2tm                                                                           
1182b700  _ZNKSt3__28time_getIcNS_19istreambuf_iteratorIcNS_11char_traitsIcEEEEE11do_get_yearES4_S4_RNS_8ios_baseERjP2tm                                                                           
1182de60  _ZNKSt3__28time_getIcNS_19istreambuf_iteratorIcNS_11char_traitsIcEEEEE12__get_minuteERiRS4_S4_RjRKNS_5ctypeIcEE                                                                          
1182dec0  _ZNKSt3__28time_getIcNS_19istreambuf_iteratorIcNS_11char_traitsIcEEEEE12__get_secondERiRS4_S4_RjRKNS_5ctypeIcEE                                                                          
1182df20  _ZNKSt3__28time_getIcNS_19istreambuf_iteratorIcNS_11char_traitsIcEEEEE13__get_12_hourERiRS4_S4_RjRKNS_5ctypeIcEE                                                                         
11824f00  _ZNKSt3__28time_getIcNS_19istreambuf_iteratorIcNS_11char_traitsIcEEEEE13__get_percentERS4_S4_RjRKNS_5ctypeIcEE                                                                           
1182df80  _ZNKSt3__28time_getIcNS_19istreambuf_iteratorIcNS_11char_traitsIcEEEEE13__get_weekdayERiRS4_S4_RjRKNS_5ctypeIcEE                                                                         
11831e60  _ZNKSt3__28time_getIcNS_19istreambuf_iteratorIcNS_11char_traitsIcEEEEE13do_date_orderEv                                                                                                  
1182b7a0  _ZNKSt3__28time_getIcNS_19istreambuf_iteratorIcNS_11char_traitsIcEEEEE14do_get_weekdayES4_S4_RNS_8ios_baseERjP2tm                                                                        
1182b840  _ZNKSt3__28time_getIcNS_19istreambuf_iteratorIcNS_11char_traitsIcEEEEE15__get_monthnameERiRS4_S4_RjRKNS_5ctypeIcEE                                                                       
1182b8e0  _ZNKSt3__28time_getIcNS_19istreambuf_iteratorIcNS_11char_traitsIcEEEEE16do_get_monthnameES4_S4_RNS_8ios_baseERjP2tm                                                                      
1182a500  _ZNKSt3__28time_getIcNS_19istreambuf_iteratorIcNS_11char_traitsIcEEEEE17__get_weekdaynameERiRS4_S4_RjRKNS_5ctypeIcEE                                                                     
11827d20  _ZNKSt3__28time_getIcNS_19istreambuf_iteratorIcNS_11char_traitsIcEEEEE17__get_white_spaceERS4_S4_RjRKNS_5ctypeIcEE                                                                       
1182dfe0  _ZNKSt3__28time_getIcNS_19istreambuf_iteratorIcNS_11char_traitsIcEEEEE18__get_day_year_numERiRS4_S4_RjRKNS_5ctypeIcEE                                                                    
1181a6c0  _ZNKSt3__28time_getIcNS_19istreambuf_iteratorIcNS_11char_traitsIcEEEEE3getES4_S4_RNS_8ios_baseERjP2tmPKcSC_                                                                              
1180c3e0  _ZNKSt3__28time_getIcNS_19istreambuf_iteratorIcNS_11char_traitsIcEEEEE6do_getES4_S4_RNS_8ios_baseERjP2tmcc                                                                               
1182e040  _ZNKSt3__28time_getIcNS_19istreambuf_iteratorIcNS_11char_traitsIcEEEEE9__get_dayERiRS4_S4_RjRKNS_5ctypeIcEE                                                                              
1182e0a0  _ZNKSt3__28time_getIwNS_19istreambuf_iteratorIwNS_11char_traitsIwEEEEE10__get_hourERiRS4_S4_RjRKNS_5ctypeIwEE                                                                            
1182e100  _ZNKSt3__28time_getIwNS_19istreambuf_iteratorIwNS_11char_traitsIwEEEEE10__get_yearERiRS4_S4_RjRKNS_5ctypeIwEE                                                                            
11826b40  _ZNKSt3__28time_getIwNS_19istreambuf_iteratorIwNS_11char_traitsIwEEEEE11__get_am_pmERiRS4_S4_RjRKNS_5ctypeIwEE                                                                           
1182e160  _ZNKSt3__28time_getIwNS_19istreambuf_iteratorIwNS_11char_traitsIwEEEEE11__get_monthERiRS4_S4_RjRKNS_5ctypeIwEE                                                                           
1182e1c0  _ZNKSt3__28time_getIwNS_19istreambuf_iteratorIwNS_11char_traitsIwEEEEE11__get_year4ERiRS4_S4_RjRKNS_5ctypeIwEE                                                                           
1182b980  _ZNKSt3__28time_getIwNS_19istreambuf_iteratorIwNS_11char_traitsIwEEEEE11do_get_dateES4_S4_RNS_8ios_baseERjP2tm                                                                           
1182e220  _ZNKSt3__28time_getIwNS_19istreambuf_iteratorIwNS_11char_traitsIwEEEEE11do_get_timeES4_S4_RNS_8ios_baseERjP2tm                                                                           
1182ba20  _ZNKSt3__28time_getIwNS_19istreambuf_iteratorIwNS_11char_traitsIwEEEEE11do_get_yearES4_S4_RNS_8ios_baseERjP2tm                                                                           
1182e280  _ZNKSt3__28time_getIwNS_19istreambuf_iteratorIwNS_11char_traitsIwEEEEE12__get_minuteERiRS4_S4_RjRKNS_5ctypeIwEE                                                                          
1182e2e0  _ZNKSt3__28time_getIwNS_19istreambuf_iteratorIwNS_11char_traitsIwEEEEE12__get_secondERiRS4_S4_RjRKNS_5ctypeIwEE                                                                          
1182e340  _ZNKSt3__28time_getIwNS_19istreambuf_iteratorIwNS_11char_traitsIwEEEEE13__get_12_hourERiRS4_S4_RjRKNS_5ctypeIwEE                                                                         
11825040  _ZNKSt3__28time_getIwNS_19istreambuf_iteratorIwNS_11char_traitsIwEEEEE13__get_percentERS4_S4_RjRKNS_5ctypeIwEE                                                                           
1182e3a0  _ZNKSt3__28time_getIwNS_19istreambuf_iteratorIwNS_11char_traitsIwEEEEE13__get_weekdayERiRS4_S4_RjRKNS_5ctypeIwEE                                                                         
11831e80  _ZNKSt3__28time_getIwNS_19istreambuf_iteratorIwNS_11char_traitsIwEEEEE13do_date_orderEv                                                                                                  
1182bac0  _ZNKSt3__28time_getIwNS_19istreambuf_iteratorIwNS_11char_traitsIwEEEEE14do_get_weekdayES4_S4_RNS_8ios_baseERjP2tm                                                                        
1182bb60  _ZNKSt3__28time_getIwNS_19istreambuf_iteratorIwNS_11char_traitsIwEEEEE15__get_monthnameERiRS4_S4_RjRKNS_5ctypeIwEE                                                                       
1182bc00  _ZNKSt3__28time_getIwNS_19istreambuf_iteratorIwNS_11char_traitsIwEEEEE16do_get_monthnameES4_S4_RNS_8ios_baseERjP2tm                                                                      
1182a5c0  _ZNKSt3__28time_getIwNS_19istreambuf_iteratorIwNS_11char_traitsIwEEEEE17__get_weekdaynameERiRS4_S4_RjRKNS_5ctypeIwEE                                                                     
11829560  _ZNKSt3__28time_getIwNS_19istreambuf_iteratorIwNS_11char_traitsIwEEEEE17__get_white_spaceERS4_S4_RjRKNS_5ctypeIwEE                                                                       
1182e400  _ZNKSt3__28time_getIwNS_19istreambuf_iteratorIwNS_11char_traitsIwEEEEE18__get_day_year_numERiRS4_S4_RjRKNS_5ctypeIwEE                                                                    
11815660  _ZNKSt3__28time_getIwNS_19istreambuf_iteratorIwNS_11char_traitsIwEEEEE3getES4_S4_RNS_8ios_baseERjP2tmPKwSC_                                                                              
1180bcc0  _ZNKSt3__28time_getIwNS_19istreambuf_iteratorIwNS_11char_traitsIwEEEEE6do_getES4_S4_RNS_8ios_baseERjP2tmcc                                                                               
1182e460  _ZNKSt3__28time_getIwNS_19istreambuf_iteratorIwNS_11char_traitsIwEEEEE9__get_dayERiRS4_S4_RjRKNS_5ctypeIwEE                                                                              
11827e20  _ZNKSt3__28time_putIcNS_19ostreambuf_iteratorIcNS_11char_traitsIcEEEEE6do_putES4_RNS_8ios_baseEcPK2tmcc                                                                                  
11826c60  _ZNKSt3__28time_putIwNS_19ostreambuf_iteratorIwNS_11char_traitsIwEEEEE6do_putES4_RNS_8ios_baseEwPK2tmcc                                                                                  
1182a680  _ZNKSt3__29basic_iosIcNS_11char_traitsIcEEE4fillEv                                                                                                                                       
11831ea0  _ZNKSt3__29basic_iosIcNS_11char_traitsIcEEE5rdbufEv                                                                                                                                      
1182e4c0  _ZNKSt3__29basic_iosIcNS_11char_traitsIcEEE5widenEc                                                                                                                                      
1180fc60  _ZNKSt3__29money_getIcNS_19istreambuf_iteratorIcNS_11char_traitsIcEEEEE6do_getES4_S4_bRNS_8ios_baseERjRNS_12basic_stringIcS3_NS_9allocatorIcEEEE                                         
11816540  _ZNKSt3__29money_getIcNS_19istreambuf_iteratorIcNS_11char_traitsIcEEEEE6do_getES4_S4_bRNS_8ios_baseERjRe                                                                                 
11811100  _ZNKSt3__29money_getIwNS_19istreambuf_iteratorIwNS_11char_traitsIwEEEEE6do_getES4_S4_bRNS_8ios_baseERjRNS_12basic_stringIwS3_NS_9allocatorIwEEEE                                         
1181bc80  _ZNKSt3__29money_getIwNS_19istreambuf_iteratorIwNS_11char_traitsIwEEEEE6do_getES4_S4_bRNS_8ios_baseERjRe                                                                                 
11813000  _ZNKSt3__29money_putIcNS_19ostreambuf_iteratorIcNS_11char_traitsIcEEEEE6do_putES4_bRNS_8ios_baseEcRKNS_12basic_stringIcS3_NS_9allocatorIcEEEE                                            
11811aa0  _ZNKSt3__29money_putIcNS_19ostreambuf_iteratorIcNS_11char_traitsIcEEEEE6do_putES4_bRNS_8ios_baseEce                                                                                      
11811f40  _ZNKSt3__29money_putIwNS_19ostreambuf_iteratorIwNS_11char_traitsIwEEEEE6do_putES4_bRNS_8ios_baseEwRKNS_12basic_stringIwS3_NS_9allocatorIwEEEE                                            
11810c00  _ZNKSt3__29money_putIwNS_19ostreambuf_iteratorIwNS_11char_traitsIwEEEEE6do_putES4_bRNS_8ios_baseEwe                                                                                      
1182a740  _ZNSt3__210__stdinbufIcE5imbueERKNS_6localeE                                                                                                                                             
11831ec0  _ZNSt3__210__stdinbufIcE5uflowEv                                                                                                                                                         
1181dfe0  _ZNSt3__210__stdinbufIcE9__getcharEb                                                                                                                                                     
118239e0  _ZNSt3__210__stdinbufIcE9pbackfailEi                                                                                                                                                     
11831ee0  _ZNSt3__210__stdinbufIcE9underflowEv                                                                                                                                                     
1182d020  _ZNSt3__210__stdinbufIcEC1EP7__sFILEPi                                                                                                                                                   
1182fc20  _ZNSt3__210__stdinbufIcED0Ev                                                                                                                                                             
11831f00  _ZNSt3__210__stdinbufIcED1Ev                                                                                                                                                             
1182bca0  _ZNSt3__210__stdinbufIwE5imbueERKNS_6localeE                                                                                                                                             
11831f20  _ZNSt3__210__stdinbufIwE5uflowEv                                                                                                                                                         
1181e240  _ZNSt3__210__stdinbufIwE9__getcharEb                                                                                                                                                     
11823b40  _ZNSt3__210__stdinbufIwE9pbackfailEi                                                                                                                                                     
11831f40  _ZNSt3__210__stdinbufIwE9underflowEv                                                                                                                                                     
1182d0a0  _ZNSt3__210__stdinbufIwEC1EP7__sFILEPi                                                                                                                                                   
1182fc60  _ZNSt3__210__stdinbufIwED0Ev                                                                                                                                                             
11831f60  _ZNSt3__210__stdinbufIwED1Ev                                                                                                                                                             
1182e520  _ZNSt3__210__time_putD1Ev                                                                                                                                                                
1182e520  _ZNSt3__210__time_putD2Ev                                                                                                                                                                
1183874c  _ZNSt3__210moneypunctIcLb0EE2idE                                                                                                                                                         
1182fca0  _ZNSt3__210moneypunctIcLb0EED0Ev                                                                                                                                                         
11831f80  _ZNSt3__210moneypunctIcLb0EED1Ev                                                                                                                                                         
11838754  _ZNSt3__210moneypunctIcLb1EE2idE                                                                                                                                                         
1182fce0  _ZNSt3__210moneypunctIcLb1EED0Ev                                                                                                                                                         
11831fa0  _ZNSt3__210moneypunctIcLb1EED1Ev                                                                                                                                                         
1183875c  _ZNSt3__210moneypunctIwLb0EE2idE                                                                                                                                                         
1182fd20  _ZNSt3__210moneypunctIwLb0EED0Ev                                                                                                                                                         
11831fc0  _ZNSt3__210moneypunctIwLb0EED1Ev                                                                                                                                                         
11838764  _ZNSt3__210moneypunctIwLb1EE2idE                                                                                                                                                         
1182fd60  _ZNSt3__210moneypunctIwLb1EED0Ev                                                                                                                                                         
11831fe0  _ZNSt3__210moneypunctIwLb1EED1Ev                                                                                                                                                         
1182fda0  _ZNSt3__210unique_ptrIcPFvPvEE5resetEPc                                                                                                                                                  
1182fde0  _ZNSt3__210unique_ptrIhPFvPvEE5resetEPh                                                                                                                                                  
1182fe20  _ZNSt3__210unique_ptrIwPFvPvEE5resetEPw                                                                                                                                                  
1182e580  _ZNSt3__211__call_onceERVmPvPFvS2_E                                                                                                                                                      
1180cac0  _ZNSt3__211__money_getIcE13__gather_infoEbRKNS_6localeERNS_10money_base7patternERcS8_RNS_12basic_stringIcNS_11char_traitsIcEENS_9allocatorIcEEEESF_SF_SF_Ri                              
1180d1a0  _ZNSt3__211__money_getIwE13__gather_infoEbRKNS_6localeERNS_10money_base7patternERwS8_RNS_12basic_stringIcNS_11char_traitsIcEENS_9allocatorIcEEEERNS9_IwNSA_IwEENSC_IwEEEESJ_SJ_Ri        
118097c0  _ZNSt3__211__money_putIcE13__gather_infoEbbRKNS_6localeERNS_10money_base7patternERcS8_RNS_12basic_stringIcNS_11char_traitsIcEENS_9allocatorIcEEEESF_SF_Ri                                
1180d880  _ZNSt3__211__money_putIcE8__formatEPcRS2_S3_jPKcS5_RKNS_5ctypeIcEEbRKNS_10money_base7patternEccRKNS_12basic_stringIcNS_11char_traitsIcEENS_9allocatorIcEEEESL_SL_i                       
1180a6e0  _ZNSt3__211__money_putIwE13__gather_infoEbbRKNS_6localeERNS_10money_base7patternERwS8_RNS_12basic_stringIcNS_11char_traitsIcEENS_9allocatorIcEEEERNS9_IwNSA_IwEENSC_IwEEEESJ_Ri          
11809f60  _ZNSt3__211__money_putIwE8__formatEPwRS2_S3_jPKwS5_RKNS_5ctypeIwEEbRKNS_10money_base7patternEwwRKNS_12basic_stringIcNS_11char_traitsIcEENS_9allocatorIcEEEERKNSE_IwNSF_IwEENSH_IwEEEESQ_i
1182a800  _ZNSt3__211__stdoutbufIcE4syncEv                                                                                                                                                         
1182d120  _ZNSt3__211__stdoutbufIcE5imbueERKNS_6localeE                                                                                                                                            
1182a8c0  _ZNSt3__211__stdoutbufIcE6xsputnEPKci                                                                                                                                                    
11822e60  _ZNSt3__211__stdoutbufIcE8overflowEi                                                                                                                                                     
1182bd40  _ZNSt3__211__stdoutbufIcEC1EP7__sFILEPi                                                                                                                                                  
1182fe60  _ZNSt3__211__stdoutbufIcED0Ev                                                                                                                                                            
11832000  _ZNSt3__211__stdoutbufIcED1Ev                                                                                                                                                            
1182a980  _ZNSt3__211__stdoutbufIwE4syncEv                                                                                                                                                         
1182d1a0  _ZNSt3__211__stdoutbufIwE5imbueERKNS_6localeE                                                                                                                                            
1182aa40  _ZNSt3__211__stdoutbufIwE6xsputnEPKwi                                                                                                                                                    
11822fe0  _ZNSt3__211__stdoutbufIwE8overflowEi                                                                                                                                                     
1182bde0  _ZNSt3__211__stdoutbufIwEC1EP7__sFILEPi                                                                                                                                                  
1182fea0  _ZNSt3__211__stdoutbufIwED0Ev                                                                                                                                                            
11832020  _ZNSt3__211__stdoutbufIwED1Ev                                                                                                                                                            
11832040  _ZNSt3__211char_traitsIcE11to_int_typeEc                                                                                                                                                 
1182fee0  _ZNSt3__211char_traitsIcE4copyEPcPKcj                                                                                                                                                    
1182ff20  _ZNSt3__211char_traitsIcE4moveEPcPKcj                                                                                                                                                    
1182ff60  _ZNSt3__211char_traitsIcE6assignEPcjc                                                                                                                                                    
11832060  _ZNSt3__211char_traitsIcE6assignERcRKc                                                                                                                                                   
11832080  _ZNSt3__211char_traitsIcE6lengthEPKc                                                                                                                                                     
1182ffa0  _ZNSt3__211char_traitsIwE4copyEPwPKwj                                                                                                                                                    
1182ffe0  _ZNSt3__211char_traitsIwE4moveEPwPKwj                                                                                                                                                    
118320a0  _ZNSt3__211char_traitsIwE6assignERwRKw                                                                                                                                                   
118320c0  _ZNSt3__211char_traitsIwE6lengthEPKw                                                                                                                                                     
118320e0  _ZNSt3__212__do_nothingEPv                                                                                                                                                               
1181e4a0  _ZNSt3__212basic_stringIcNS_11char_traitsIcEENS_9allocatorIcEEE21__grow_by_and_replaceEjjjjjjPKc                                                                                         
11827f20  _ZNSt3__212basic_stringIcNS_11char_traitsIcEENS_9allocatorIcEEE6__initEPKcj                                                                                                              
11828020  _ZNSt3__212basic_stringIcNS_11char_traitsIcEENS_9allocatorIcEEE6__initEjc                                                                                                                
11823ca0  _ZNSt3__212basic_stringIcNS_11char_traitsIcEENS_9allocatorIcEEE6appendEPKcj                                                                                                              
11823e00  _ZNSt3__212basic_stringIcNS_11char_traitsIcEENS_9allocatorIcEEE6appendEjc                                                                                                                
11830020  _ZNSt3__212basic_stringIcNS_11char_traitsIcEENS_9allocatorIcEEE6assignEPKc                                                                                                               
11825180  _ZNSt3__212basic_stringIcNS_11char_traitsIcEENS_9allocatorIcEEE6assignEPKcj                                                                                                              
11828120  _ZNSt3__212basic_stringIcNS_11char_traitsIcEENS_9allocatorIcEEE6resizeEjc                                                                                                                
1181ede0  _ZNSt3__212basic_stringIcNS_11char_traitsIcEENS_9allocatorIcEEE7reserveEj                                                                                                                
1181fac0  _ZNSt3__212basic_stringIcNS_11char_traitsIcEENS_9allocatorIcEEE9__grow_byEjjjjjj                                                                                                         
118252c0  _ZNSt3__212basic_stringIcNS_11char_traitsIcEENS_9allocatorIcEEE9push_backEc                                                                                                              
1182ab00  _ZNSt3__212basic_stringIcNS_11char_traitsIcEENS_9allocatorIcEEEC1ERKS5_                                                                                                                  
11830060  _ZNSt3__212basic_stringIcNS_11char_traitsIcEENS_9allocatorIcEEEC1Ejc                                                                                                                     
118300a0  _ZNSt3__212basic_stringIcNS_11char_traitsIcEENS_9allocatorIcEEEC1Ev                                                                                                                      
1182e5e0  _ZNSt3__212basic_stringIcNS_11char_traitsIcEENS_9allocatorIcEEED1Ev                                                                                                                      
1181cde0  _ZNSt3__212basic_stringIwNS_11char_traitsIwEENS_9allocatorIwEEE21__grow_by_and_replaceEjjjjjjPKw                                                                                         
11825400  _ZNSt3__212basic_stringIwNS_11char_traitsIwEENS_9allocatorIwEEE6__initEPKwj                                                                                                              
11823f60  _ZNSt3__212basic_stringIwNS_11char_traitsIwEENS_9allocatorIwEEE6appendEPKwj                                                                                                              
118300e0  _ZNSt3__212basic_stringIwNS_11char_traitsIwEENS_9allocatorIwEEE6assignEPKw                                                                                                               
11825540  _ZNSt3__212basic_stringIwNS_11char_traitsIwEENS_9allocatorIwEEE6assignEPKwj                                                                                                              
1181db00  _ZNSt3__212basic_stringIwNS_11char_traitsIwEENS_9allocatorIwEEE7reserveEj                                                                                                                
1181f020  _ZNSt3__212basic_stringIwNS_11char_traitsIwEENS_9allocatorIwEEE9__grow_byEjjjjjj                                                                                                         
118240c0  _ZNSt3__212basic_stringIwNS_11char_traitsIwEENS_9allocatorIwEEE9push_backEw                                                                                                              
1182abc0  _ZNSt3__212basic_stringIwNS_11char_traitsIwEENS_9allocatorIwEEEC1ERKS5_                                                                                                                  
11830120  _ZNSt3__212basic_stringIwNS_11char_traitsIwEENS_9allocatorIwEEEC1Ev                                                                                                                      
1182e640  _ZNSt3__212basic_stringIwNS_11char_traitsIwEENS_9allocatorIwEEED1Ev                                                                                                                      
11830160  _ZNSt3__213basic_istreamIcNS_11char_traitsIcEEED0Ev                                                                                                                                      
118301a0  _ZNSt3__213basic_istreamIcNS_11char_traitsIcEEED1Ev                                                                                                                                      
1182e6a0  _ZNSt3__213basic_istreamIcNS_11char_traitsIcEEED2Ev                                                                                                                                      
118301e0  _ZNSt3__213basic_istreamIwNS_11char_traitsIwEEED0Ev                                                                                                                                      
11830220  _ZNSt3__213basic_istreamIwNS_11char_traitsIwEEED1Ev                                                                                                                                      
1182e700  _ZNSt3__213basic_istreamIwNS_11char_traitsIwEEED2Ev                                                                                                                                      
11826d80  _ZNSt3__213basic_ostreamIcNS_11char_traitsIcEEE3putEc                                                                                                                                    
11829640  _ZNSt3__213basic_ostreamIcNS_11char_traitsIcEEE5flushEv                                                                                                                                  
1182ac80  _ZNSt3__213basic_ostreamIcNS_11char_traitsIcEEE6sentryC1ERS3_                                                                                                                            
11826ea0  _ZNSt3__213basic_ostreamIcNS_11char_traitsIcEEE6sentryD1Ev                                                                                                                               
11830260  _ZNSt3__213basic_ostreamIcNS_11char_traitsIcEEED0Ev                                                                                                                                      
118302a0  _ZNSt3__213basic_ostreamIcNS_11char_traitsIcEEED1Ev                                                                                                                                      
1182e760  _ZNSt3__213basic_ostreamIcNS_11char_traitsIcEEED2Ev                                                                                                                                      
11832100  _ZNSt3__213basic_ostreamIcNS_11char_traitsIcEEElsEPFRS3_S4_E                                                                                                                             
11821c00  _ZNSt3__213basic_ostreamIcNS_11char_traitsIcEEElsEi                                                                                                                                      
11829720  _ZNSt3__213basic_ostreamIwNS_11char_traitsIwEEE5flushEv                                                                                                                                  
1182ad40  _ZNSt3__213basic_ostreamIwNS_11char_traitsIwEEE6sentryC1ERS3_                                                                                                                            
11826fc0  _ZNSt3__213basic_ostreamIwNS_11char_traitsIwEEE6sentryD1Ev                                                                                                                               
118302e0  _ZNSt3__213basic_ostreamIwNS_11char_traitsIwEEED0Ev                                                                                                                                      
11830320  _ZNSt3__213basic_ostreamIwNS_11char_traitsIwEEED1Ev                                                                                                                                      
1182e7c0  _ZNSt3__213basic_ostreamIwNS_11char_traitsIwEEED2Ev                                                                                                                                      
11830360  _ZNSt3__214__num_get_base10__get_baseERNS_8ios_baseE                                                                                                                                     
118348d8  _ZNSt3__214__num_get_base5__srcE                                                                                                                                                         
1182ae00  _ZNSt3__214__num_put_base12__format_intEPcPKcbj                                                                                                                                          
11825680  _ZNSt3__214__num_put_base14__format_floatEPcPKcj                                                                                                                                         
1182be80  _ZNSt3__214__num_put_base18__identify_paddingEPcS1_RKNS_8ios_baseE                                                                                                                       
118101a0  _ZNSt3__214__scan_keywordINS_19istreambuf_iteratorIcNS_11char_traitsIcEEEEPKNS_12basic_stringIcS3_NS_9allocatorIcEEEENS_5ctypeIcEEEET0_RT_SE_SD_SD_RKT1_Rjb                              
1180ebc0  _ZNSt3__214__scan_keywordINS_19istreambuf_iteratorIwNS_11char_traitsIwEEEEPKNS_12basic_stringIwS3_NS_9allocatorIwEEEENS_5ctypeIwEEEET0_RT_SE_SD_SD_RKT1_Rjb                              
118303a0  _ZNSt3__214__shared_count16__release_sharedEv                                                                                                                                            
11832120  _ZNSt3__214__shared_countD0Ev                                                                                                                                                            
11832140  _ZNSt3__214__shared_countD1Ev                                                                                                                                                            
11832140  _ZNSt3__214__shared_countD2Ev                                                                                                                                                            
11829800  _ZNSt3__214__split_bufferIPNS_6locale5facetERNS_15__sso_allocatorIS3_Lj28EEEEC1EjjS6_                                                                                                    
1182bf20  _ZNSt3__214__split_bufferIPNS_6locale5facetERNS_15__sso_allocatorIS3_Lj28EEEED1Ev                                                                                                        
11828220  _ZNSt3__215__num_get_floatIdEET_PKcS3_Rj                                                                                                                                                 
11828320  _ZNSt3__215__num_get_floatIeEET_PKcS3_Rj                                                                                                                                                 
11828420  _ZNSt3__215__num_get_floatIfEET_PKcS3_Rj                                                                                                                                                 
11832160  _ZNSt3__215basic_streambufIcNS_11char_traitsIcEEE4syncEv                                                                                                                                 
11832180  _ZNSt3__215basic_streambufIcNS_11char_traitsIcEEE5imbueERKNS_6localeE                                                                                                                    
118303e0  _ZNSt3__215basic_streambufIcNS_11char_traitsIcEEE5sgetcEv                                                                                                                                
118321a0  _ZNSt3__215basic_streambufIcNS_11char_traitsIcEEE5sputnEPKci                                                                                                                             
1182e820  _ZNSt3__215basic_streambufIcNS_11char_traitsIcEEE5uflowEv                                                                                                                                
118321c0  _ZNSt3__215basic_streambufIcNS_11char_traitsIcEEE6setbufEPci                                                                                                                             
118270e0  _ZNSt3__215basic_streambufIcNS_11char_traitsIcEEE6xsgetnEPci                                                                                                                             
11827200  _ZNSt3__215basic_streambufIcNS_11char_traitsIcEEE6xsputnEPKci                                                                                                                            
118321e0  _ZNSt3__215basic_streambufIcNS_11char_traitsIcEEE7seekoffExNS_8ios_base7seekdirEj                                                                                                        
11832200  _ZNSt3__215basic_streambufIcNS_11char_traitsIcEEE7seekposENS_4fposIiEEj                                                                                                                  
11832220  _ZNSt3__215basic_streambufIcNS_11char_traitsIcEEE8overflowEi                                                                                                                             
11832240  _ZNSt3__215basic_streambufIcNS_11char_traitsIcEEE9pbackfailEi                                                                                                                            
11832260  _ZNSt3__215basic_streambufIcNS_11char_traitsIcEEE9showmanycEv                                                                                                                            
11832280  _ZNSt3__215basic_streambufIcNS_11char_traitsIcEEE9underflowEv                                                                                                                            
1182e880  _ZNSt3__215basic_streambufIcNS_11char_traitsIcEEEC1Ev                                                                                                                                    
118322a0  _ZNSt3__215basic_streambufIcNS_11char_traitsIcEEEC2Ev                                                                                                                                    
11830420  _ZNSt3__215basic_streambufIcNS_11char_traitsIcEEED0Ev                                                                                                                                    
11830460  _ZNSt3__215basic_streambufIcNS_11char_traitsIcEEED1Ev                                                                                                                                    
118322c0  _ZNSt3__215basic_streambufIcNS_11char_traitsIcEEED2Ev                                                                                                                                    
118322e0  _ZNSt3__215basic_streambufIwNS_11char_traitsIwEEE4syncEv                                                                                                                                 
11832300  _ZNSt3__215basic_streambufIwNS_11char_traitsIwEEE5imbueERKNS_6localeE                                                                                                                    
118304a0  _ZNSt3__215basic_streambufIwNS_11char_traitsIwEEE5sgetcEv                                                                                                                                
1182e8e0  _ZNSt3__215basic_streambufIwNS_11char_traitsIwEEE5uflowEv                                                                                                                                
11832320  _ZNSt3__215basic_streambufIwNS_11char_traitsIwEEE6setbufEPwi                                                                                                                             
118257c0  _ZNSt3__215basic_streambufIwNS_11char_traitsIwEEE6xsgetnEPwi                                                                                                                             
11825900  _ZNSt3__215basic_streambufIwNS_11char_traitsIwEEE6xsputnEPKwi                                                                                                                            
11832340  _ZNSt3__215basic_streambufIwNS_11char_traitsIwEEE7seekoffExNS_8ios_base7seekdirEj                                                                                                        
11832360  _ZNSt3__215basic_streambufIwNS_11char_traitsIwEEE7seekposENS_4fposIiEEj                                                                                                                  
11832380  _ZNSt3__215basic_streambufIwNS_11char_traitsIwEEE8overflowEi                                                                                                                             
118323a0  _ZNSt3__215basic_streambufIwNS_11char_traitsIwEEE9pbackfailEi                                                                                                                            
118323c0  _ZNSt3__215basic_streambufIwNS_11char_traitsIwEEE9showmanycEv                                                                                                                            
118323e0  _ZNSt3__215basic_streambufIwNS_11char_traitsIwEEE9underflowEv                                                                                                                            
1182e940  _ZNSt3__215basic_streambufIwNS_11char_traitsIwEEEC1Ev                                                                                                                                    
11832400  _ZNSt3__215basic_streambufIwNS_11char_traitsIwEEEC2Ev                                                                                                                                    
118304e0  _ZNSt3__215basic_streambufIwNS_11char_traitsIwEEED0Ev                                                                                                                                    
11830520  _ZNSt3__215basic_streambufIwNS_11char_traitsIwEEED1Ev                                                                                                                                    
11832420  _ZNSt3__215basic_streambufIwNS_11char_traitsIwEEED2Ev                                                                                                                                    
11825a40  _ZNSt3__216__check_groupingERKNS_12basic_stringIcNS_11char_traitsIcEENS_9allocatorIcEEEEPjS8_Rj                                                                                          
11825b80  _ZNSt3__216__pad_and_outputIcNS_11char_traitsIcEEEENS_19ostreambuf_iteratorIT_T0_EES6_PKS4_S8_S8_RNS_8ios_baseES4_                                                                       
1181b360  _ZNSt3__216__pad_and_outputIwNS_11char_traitsIwEEEENS_19ostreambuf_iteratorIT_T0_EES6_PKS4_S8_S8_RNS_8ios_baseES4_                                                                       
1182e9a0  _ZNSt3__217__call_once_proxyINS_5tupleIJONS_34_GLOBAL__N__10_locale_cpp_a718320311__fake_bindEEEEEEvPv                                                                                   
11825cc0  _ZNSt3__219__double_or_nothingIcEEvRNS_10unique_ptrIT_PFvPvEEERPS2_S9_                                                                                                                   
11824220  _ZNSt3__219__double_or_nothingIjEEvRNS_10unique_ptrIT_PFvPvEEERPS2_S9_                                                                                                                   
11823160  _ZNSt3__219__double_or_nothingIwEEvRNS_10unique_ptrIT_PFvPvEEERPS2_S9_                                                                                                                   
11838430  _ZNSt3__219__start_std_streamsE                                                                                                                                                          
1182d220  _ZNSt3__219istreambuf_iteratorIcNS_11char_traitsIcEEEppEv                                                                                                                                
1182d2a0  _ZNSt3__219istreambuf_iteratorIwNS_11char_traitsIwEEEppEv                                                                                                                                
11830560  _ZNSt3__219ostreambuf_iteratorIcNS_11char_traitsIcEEEC1ERNS_13basic_ostreamIcS2_EE                                                                                                       
1182d320  _ZNSt3__219ostreambuf_iteratorIcNS_11char_traitsIcEEEaSEc                                                                                                                                
1182d3a0  _ZNSt3__219ostreambuf_iteratorIwNS_11char_traitsIwEEEaSEw                                                                                                                                
1181fcc0  _ZNSt3__220__get_up_to_n_digitsIcNS_19istreambuf_iteratorIcNS_11char_traitsIcEEEEEEiRT0_S5_RjRKNS_5ctypeIT_EEi                                                                           
1181f480  _ZNSt3__220__get_up_to_n_digitsIwNS_19istreambuf_iteratorIwNS_11char_traitsIwEEEEEEiRT0_S5_RjRKNS_5ctypeIT_EEi                                                                           
11832440  _ZNSt3__220__throw_length_errorEPKc                                                                                                                                                      
11832460  _ZNSt3__221__throw_runtime_errorEPKc                                                                                                                                                     
11832480  _ZNSt3__222__compressed_pair_elemINS_12basic_stringIcNS_11char_traitsIcEENS_9allocatorIcEEE5__repELi0ELb0EE5__getEv                                                                      
118324a0  _ZNSt3__222__compressed_pair_elemINS_12basic_stringIcNS_11char_traitsIcEENS_9allocatorIcEEE5__repELi0ELb0EEC1Ev                                                                          
118324c0  _ZNSt3__222__compressed_pair_elemINS_12basic_stringIcNS_11char_traitsIcEENS_9allocatorIcEEE5__repELi0ELb0EEC2Ev                                                                          
118324e0  _ZNSt3__222__compressed_pair_elemINS_12basic_stringIwNS_11char_traitsIwEENS_9allocatorIwEEE5__repELi0ELb0EE5__getEv                                                                      
118305a0  _ZNSt3__222__compressed_pair_elemINS_12basic_stringIwNS_11char_traitsIwEENS_9allocatorIwEEE5__repELi0ELb0EEC1Ev                                                                          
11832500  _ZNSt3__222__compressed_pair_elemINS_12basic_stringIwNS_11char_traitsIwEENS_9allocatorIwEEE5__repELi0ELb0EEC2Ev                                                                          
11832520  _ZNSt3__222__compressed_pair_elemINS_9allocatorIcEELi1ELb1EEC1IS2_vEEOT_                                                                                                                 
11832540  _ZNSt3__222__compressed_pair_elemINS_9allocatorIcEELi1ELb1EEC2IS2_vEEOT_                                                                                                                 
11832560  _ZNSt3__222__compressed_pair_elemINS_9allocatorIwEELi1ELb1EEC1IS2_vEEOT_                                                                                                                 
11832580  _ZNSt3__222__compressed_pair_elemINS_9allocatorIwEELi1ELb1EEC2IS2_vEEOT_                                                                                                                 
11825e00  _ZNSt3__224__put_character_sequenceIcNS_11char_traitsIcEEEERNS_13basic_ostreamIT_T0_EES7_PKS4_j                                                                                          
11825f40  _ZNSt3__225__num_get_signed_integralIlEET_PKcS3_Rji                                                                                                                                      
11826080  _ZNSt3__225__num_get_signed_integralIxEET_PKcS3_Rji                                                                                                                                      
11827320  _ZNSt3__227__num_get_unsigned_integralIjEET_PKcS3_Rji                                                                                                                                    
11827440  _ZNSt3__227__num_get_unsigned_integralImEET_PKcS3_Rji                                                                                                                                    
11827560  _ZNSt3__227__num_get_unsigned_integralItEET_PKcS3_Rji                                                                                                                                    
11827680  _ZNSt3__227__num_get_unsigned_integralIyEET_PKcS3_Rji                                                                                                                                    
11837e80  _ZNSt3__23cinE                                                                                                                                                                           
11837f30  _ZNSt3__24cerrE                                                                                                                                                                          
11837f84  _ZNSt3__24clogE                                                                                                                                                                          
11837fd8  _ZNSt3__24coutE                                                                                                                                                                          
1182ea00  _ZNSt3__24endlIcNS_11char_traitsIcEEEERNS_13basic_ostreamIT_T0_EES7_                                                                                                                     
11837ed8  _ZNSt3__24wcinE                                                                                                                                                                          
118325a0  _ZNSt3__25ctypeIcE13classic_tableEv                                                                                                                                                      
1183876c  _ZNSt3__25ctypeIcE2idE                                                                                                                                                                   
1182ea60  _ZNSt3__25ctypeIcEC1EPKhbj                                                                                                                                                               
1182ea60  _ZNSt3__25ctypeIcEC2EPKhbj                                                                                                                                                               
118305e0  _ZNSt3__25ctypeIcED0Ev                                                                                                                                                                   
1182eac0  _ZNSt3__25ctypeIcED1Ev                                                                                                                                                                   
1182eac0  _ZNSt3__25ctypeIcED2Ev                                                                                                                                                                   
11838774  _ZNSt3__25ctypeIwE2idE                                                                                                                                                                   
11830620  _ZNSt3__25ctypeIwED0Ev                                                                                                                                                                   
118325c0  _ZNSt3__25ctypeIwED1Ev                                                                                                                                                                   
118325c0  _ZNSt3__25ctypeIwED2Ev                                                                                                                                                                   
1183802c  _ZNSt3__25wcerrE                                                                                                                                                                         
11838080  _ZNSt3__25wclogE                                                                                                                                                                         
118380d4  _ZNSt3__25wcoutE                                                                                                                                                                         
1182bfc0  _ZNSt3__26__clocEv                                                                                                                                                                       
1182c060  _ZNSt3__26locale2id5__getEv                                                                                                                                                              
118325e0  _ZNSt3__26locale2id6__initEv                                                                                                                                                             
11838848  _ZNSt3__26locale2id9__next_idE                                                                                                                                                           
11832600  _ZNSt3__26locale5__imp11make_globalEv                                                                                                                                                    
11830660  _ZNSt3__26locale5__imp12make_classicEv                                                                                                                                                   
11828520  _ZNSt3__26locale5__imp7installEPNS0_5facetEl                                                                                                                                             
11808f80  _ZNSt3__26locale5__impC1Ej                                                                                                                                                               
11808f80  _ZNSt3__26locale5__impC2Ej                                                                                                                                                               
118306a0  _ZNSt3__26locale5__impD0Ev                                                                                                                                                               
118277a0  _ZNSt3__26locale5__impD1Ev                                                                                                                                                               
118277a0  _ZNSt3__26locale5__impD2Ev                                                                                                                                                               
11832620  _ZNSt3__26locale5facet16__on_zero_sharedEv                                                                                                                                               
118306e0  _ZNSt3__26locale5facetD0Ev                                                                                                                                                               
11832640  _ZNSt3__26locale5facetD1Ev                                                                                                                                                               
11832640  _ZNSt3__26locale5facetD2Ev                                                                                                                                                               
1182c100  _ZNSt3__26locale7classicEv                                                                                                                                                               
1182c1a0  _ZNSt3__26locale8__globalEv                                                                                                                                                              
11832660  _ZNSt3__26localeC1ERKS0_                                                                                                                                                                 
11830720  _ZNSt3__26localeC1Ev                                                                                                                                                                     
11832660  _ZNSt3__26localeC2ERKS0_                                                                                                                                                                 
11830720  _ZNSt3__26localeC2Ev                                                                                                                                                                     
1182eb20  _ZNSt3__26localeD1Ev                                                                                                                                                                     
1182eb20  _ZNSt3__26localeD2Ev                                                                                                                                                                     
11830760  _ZNSt3__26vectorIPNS_6locale5facetENS_15__sso_allocatorIS3_Lj28EEEE18__construct_at_endEj                                                                                                
1181fec0  _ZNSt3__26vectorIPNS_6locale5facetENS_15__sso_allocatorIS3_Lj28EEEE8__appendEj                                                                                                           
1182aec0  _ZNSt3__26vectorIPNS_6locale5facetENS_15__sso_allocatorIS3_Lj28EEEE8allocateEj                                                                                                           
1182eb80  _ZNSt3__26vectorIPNS_6locale5facetENS_15__sso_allocatorIS3_Lj28EEEEC1Ej                                                                                                                  
1183877c  _ZNSt3__27codecvtIDiciE2idE                                                                                                                                                              
118307a0  _ZNSt3__27codecvtIDiciED0Ev                                                                                                                                                              
11832680  _ZNSt3__27codecvtIDiciED1Ev                                                                                                                                                              
11832680  _ZNSt3__27codecvtIDiciED2Ev                                                                                                                                                              
11838784  _ZNSt3__27codecvtIDsciE2idE                                                                                                                                                              
118307e0  _ZNSt3__27codecvtIDsciED0Ev                                                                                                                                                              
118326a0  _ZNSt3__27codecvtIDsciED1Ev                                                                                                                                                              
118326a0  _ZNSt3__27codecvtIDsciED2Ev                                                                                                                                                              
1183878c  _ZNSt3__27codecvtIcciE2idE                                                                                                                                                               
11830820  _ZNSt3__27codecvtIcciED0Ev                                                                                                                                                               
118326c0  _ZNSt3__27codecvtIcciED1Ev                                                                                                                                                               
118326c0  _ZNSt3__27codecvtIcciED2Ev                                                                                                                                                               
11838794  _ZNSt3__27codecvtIwciE2idE                                                                                                                                                               
1182ebe0  _ZNSt3__27codecvtIwciEC1Ej                                                                                                                                                               
1182ebe0  _ZNSt3__27codecvtIwciEC2Ej                                                                                                                                                               
11830860  _ZNSt3__27codecvtIwciED0Ev                                                                                                                                                               
1182ec40  _ZNSt3__27codecvtIwciED1Ev                                                                                                                                                               
1182ec40  _ZNSt3__27codecvtIwciED2Ev                                                                                                                                                               
1183879c  _ZNSt3__27collateIcE2idE                                                                                                                                                                 
118308a0  _ZNSt3__27collateIcED0Ev                                                                                                                                                                 
118326e0  _ZNSt3__27collateIcED1Ev                                                                                                                                                                 
118387a4  _ZNSt3__27collateIwE2idE                                                                                                                                                                 
118308e0  _ZNSt3__27collateIwED0Ev                                                                                                                                                                 
11832700  _ZNSt3__27collateIwED1Ev                                                                                                                                                                 
118387ac  _ZNSt3__27num_getIcNS_19istreambuf_iteratorIcNS_11char_traitsIcEEEEE2idE                                                                                                                 
11830920  _ZNSt3__27num_getIcNS_19istreambuf_iteratorIcNS_11char_traitsIcEEEEED0Ev                                                                                                                 
11832720  _ZNSt3__27num_getIcNS_19istreambuf_iteratorIcNS_11char_traitsIcEEEEED1Ev                                                                                                                 
118387b4  _ZNSt3__27num_getIwNS_19istreambuf_iteratorIwNS_11char_traitsIwEEEEE2idE                                                                                                                 
11830960  _ZNSt3__27num_getIwNS_19istreambuf_iteratorIwNS_11char_traitsIwEEEEED0Ev                                                                                                                 
11832740  _ZNSt3__27num_getIwNS_19istreambuf_iteratorIwNS_11char_traitsIwEEEEED1Ev                                                                                                                 
118387bc  _ZNSt3__27num_putIcNS_19ostreambuf_iteratorIcNS_11char_traitsIcEEEEE2idE                                                                                                                 
118309a0  _ZNSt3__27num_putIcNS_19ostreambuf_iteratorIcNS_11char_traitsIcEEEEED0Ev                                                                                                                 
11832760  _ZNSt3__27num_putIcNS_19ostreambuf_iteratorIcNS_11char_traitsIcEEEEED1Ev                                                                                                                 
118387c4  _ZNSt3__27num_putIwNS_19ostreambuf_iteratorIwNS_11char_traitsIwEEEEE2idE                                                                                                                 
118309e0  _ZNSt3__27num_putIwNS_19ostreambuf_iteratorIwNS_11char_traitsIwEEEEED0Ev                                                                                                                 
11832780  _ZNSt3__27num_putIwNS_19ostreambuf_iteratorIwNS_11char_traitsIwEEEEED1Ev                                                                                                                 
1182d420  _ZNSt3__28ios_base16__call_callbacksENS0_5eventE                                                                                                                                         
118106e0  _ZNSt3__28ios_base4InitC1Ev                                                                                                                                                              
118106e0  _ZNSt3__28ios_base4InitC2Ev                                                                                                                                                              
1182eca0  _ZNSt3__28ios_base4InitD1Ev                                                                                                                                                              
1182eca0  _ZNSt3__28ios_base4InitD2Ev                                                                                                                                                              
1182ed00  _ZNSt3__28ios_base4initEPv                                                                                                                                                               
118327a0  _ZNSt3__28ios_base5clearEj                                                                                                                                                               
11830a20  _ZNSt3__28ios_base5widthEi                                                                                                                                                               
11830a60  _ZNSt3__28ios_baseD0Ev                                                                                                                                                                   
1182d4a0  _ZNSt3__28ios_baseD1Ev                                                                                                                                                                   
1182d4a0  _ZNSt3__28ios_baseD2Ev                                                                                                                                                                   
118387cc  _ZNSt3__28messagesIcE2idE                                                                                                                                                                
11830aa0  _ZNSt3__28messagesIcED0Ev                                                                                                                                                                
118327c0  _ZNSt3__28messagesIcED1Ev                                                                                                                                                                
118387d4  _ZNSt3__28messagesIwE2idE                                                                                                                                                                
11830ae0  _ZNSt3__28messagesIwED0Ev                                                                                                                                                                
118327e0  _ZNSt3__28messagesIwED1Ev                                                                                                                                                                
118387dc  _ZNSt3__28numpunctIcE2idE                                                                                                                                                                
1182d520  _ZNSt3__28numpunctIcEC1Ej                                                                                                                                                                
1182d520  _ZNSt3__28numpunctIcEC2Ej                                                                                                                                                                
11830b20  _ZNSt3__28numpunctIcED0Ev                                                                                                                                                                
1182ed60  _ZNSt3__28numpunctIcED1Ev                                                                                                                                                                
1182ed60  _ZNSt3__28numpunctIcED2Ev                                                                                                                                                                
118387e4  _ZNSt3__28numpunctIwE2idE                                                                                                                                                                
1182d5a0  _ZNSt3__28numpunctIwEC1Ej                                                                                                                                                                
1182d5a0  _ZNSt3__28numpunctIwEC2Ej                                                                                                                                                                
11830b60  _ZNSt3__28numpunctIwED0Ev                                                                                                                                                                
1182edc0  _ZNSt3__28numpunctIwED1Ev                                                                                                                                                                
1182edc0  _ZNSt3__28numpunctIwED2Ev                                                                                                                                                                
118387ec  _ZNSt3__28time_getIcNS_19istreambuf_iteratorIcNS_11char_traitsIcEEEEE2idE                                                                                                                
11830ba0  _ZNSt3__28time_getIcNS_19istreambuf_iteratorIcNS_11char_traitsIcEEEEED0Ev                                                                                                                
11832800  _ZNSt3__28time_getIcNS_19istreambuf_iteratorIcNS_11char_traitsIcEEEEED1Ev                                                                                                                
118387f4  _ZNSt3__28time_getIwNS_19istreambuf_iteratorIwNS_11char_traitsIwEEEEE2idE                                                                                                                
11830be0  _ZNSt3__28time_getIwNS_19istreambuf_iteratorIwNS_11char_traitsIwEEEEED0Ev                                                                                                                
11832820  _ZNSt3__28time_getIwNS_19istreambuf_iteratorIwNS_11char_traitsIwEEEEED1Ev                                                                                                                
118387fc  _ZNSt3__28time_putIcNS_19ostreambuf_iteratorIcNS_11char_traitsIcEEEEE2idE                                                                                                                
11830c20  _ZNSt3__28time_putIcNS_19ostreambuf_iteratorIcNS_11char_traitsIcEEEEED0Ev                                                                                                                
11830c60  _ZNSt3__28time_putIcNS_19ostreambuf_iteratorIcNS_11char_traitsIcEEEEED1Ev                                                                                                                
11838804  _ZNSt3__28time_putIwNS_19ostreambuf_iteratorIwNS_11char_traitsIwEEEEE2idE                                                                                                                
11830ca0  _ZNSt3__28time_putIwNS_19ostreambuf_iteratorIwNS_11char_traitsIwEEEEED0Ev                                                                                                                
11830ce0  _ZNSt3__28time_putIwNS_19ostreambuf_iteratorIwNS_11char_traitsIwEEEEED1Ev                                                                                                                
1181f6a0  _ZNSt3__29__num_getIcE17__stage2_int_loopEciPcRS2_RjcRKNS_12basic_stringIcNS_11char_traitsIcEENS_9allocatorIcEEEEPjRSD_PKc                                                               
1181d080  _ZNSt3__29__num_getIcE19__stage2_float_loopEcRbRcPcRS4_ccRKNS_12basic_stringIcNS_11char_traitsIcEENS_9allocatorIcEEEEPjRSE_RjS4_                                                         
1182af80  _ZNSt3__29__num_getIcE19__stage2_float_prepERNS_8ios_baseEPcRcS5_                                                                                                                        
118200c0  _ZNSt3__29__num_getIwE17__stage2_int_loopEwiPcRS2_RjwRKNS_12basic_stringIcNS_11char_traitsIcEENS_9allocatorIcEEEEPjRSD_PKw                                                               
1181cb20  _ZNSt3__29__num_getIwE19__stage2_float_loopEwRbRcPcRS4_wwRKNS_12basic_stringIcNS_11char_traitsIcEENS_9allocatorIcEEEEPjRSE_RjPw                                                          
1182b040  _ZNSt3__29__num_getIwE19__stage2_float_prepERNS_8ios_baseEPwRwS5_                                                                                                                        
1180f160  _ZNSt3__29__num_putIcE21__widen_and_group_intEPcS2_S2_S2_RS2_S3_RKNS_6localeE                                                                                                            
1180ae40  _ZNSt3__29__num_putIcE23__widen_and_group_floatEPcS2_S2_S2_RS2_S3_RKNS_6localeE                                                                                                          
1180f6e0  _ZNSt3__29__num_putIwE21__widen_and_group_intEPcS2_S2_PwRS3_S4_RKNS_6localeE                                                                                                             
1180b580  _ZNSt3__29__num_putIwE23__widen_and_group_floatEPcS2_S2_PwRS3_S4_RKNS_6localeE                                                                                                           
11832840  _ZNSt3__29basic_iosIcNS_11char_traitsIcEEE8setstateEj                                                                                                                                    
11830d20  _ZNSt3__29basic_iosIcNS_11char_traitsIcEEED0Ev                                                                                                                                           
11832860  _ZNSt3__29basic_iosIcNS_11char_traitsIcEEED1Ev                                                                                                                                           
11832880  _ZNSt3__29basic_iosIcNS_11char_traitsIcEEED2Ev                                                                                                                                           
11830d60  _ZNSt3__29basic_iosIwNS_11char_traitsIwEEED0Ev                                                                                                                                           
118328a0  _ZNSt3__29basic_iosIwNS_11char_traitsIwEEED1Ev                                                                                                                                           
118328c0  _ZNSt3__29basic_iosIwNS_11char_traitsIwEEED2Ev                                                                                                                                           
1183880c  _ZNSt3__29money_getIcNS_19istreambuf_iteratorIcNS_11char_traitsIcEEEEE2idE                                                                                                               
11804140  _ZNSt3__29money_getIcNS_19istreambuf_iteratorIcNS_11char_traitsIcEEEEE8__do_getERS4_S4_bRKNS_6localeEjRjRbRKNS_5ctypeIcEERNS_10unique_ptrIcPFvPvEEERPcSM_                                
11830da0  _ZNSt3__29money_getIcNS_19istreambuf_iteratorIcNS_11char_traitsIcEEEEED0Ev                                                                                                               
118328e0  _ZNSt3__29money_getIcNS_19istreambuf_iteratorIcNS_11char_traitsIcEEEEED1Ev                                                                                                               
11838814  _ZNSt3__29money_getIwNS_19istreambuf_iteratorIwNS_11char_traitsIwEEEEE2idE                                                                                                               
11805a40  _ZNSt3__29money_getIwNS_19istreambuf_iteratorIwNS_11char_traitsIwEEEEE8__do_getERS4_S4_bRKNS_6localeEjRjRbRKNS_5ctypeIwEERNS_10unique_ptrIwPFvPvEEERPwSM_                                
11830de0  _ZNSt3__29money_getIwNS_19istreambuf_iteratorIwNS_11char_traitsIwEEEEED0Ev                                                                                                               
11832900  _ZNSt3__29money_getIwNS_19istreambuf_iteratorIwNS_11char_traitsIwEEEEED1Ev                                                                                                               
1183881c  _ZNSt3__29money_putIcNS_19ostreambuf_iteratorIcNS_11char_traitsIcEEEEE2idE                                                                                                               
11830e20  _ZNSt3__29money_putIcNS_19ostreambuf_iteratorIcNS_11char_traitsIcEEEEED0Ev                                                                                                               
11832920  _ZNSt3__29money_putIcNS_19ostreambuf_iteratorIcNS_11char_traitsIcEEEEED1Ev                                                                                                               
11838824  _ZNSt3__29money_putIwNS_19ostreambuf_iteratorIwNS_11char_traitsIwEEEEE2idE                                                                                                               
11830e60  _ZNSt3__29money_putIwNS_19ostreambuf_iteratorIwNS_11char_traitsIwEEEEED0Ev                                                                                                               
11832940  _ZNSt3__29money_putIwNS_19ostreambuf_iteratorIwNS_11char_traitsIwEEEEED1Ev                                                                                                               
118298e0  _ZNSt3__2eqIcNS_11char_traitsIcEEEEbRKNS_19istreambuf_iteratorIT_T0_EES8_                                                                                                                
11830ea0  _ZNSt3__2lsINS_11char_traitsIcEEEERNS_13basic_ostreamIcT_EES6_PKc                                                                                                                        
11828620  _ZNSt3__2neIwNS_11char_traitsIwEEEEbRKNS_19istreambuf_iteratorIT_T0_EES8_                                                                                                                
11832960  _ZNSt9type_infoD1Ev                                                                                                                                                                      
11832960  _ZNSt9type_infoD2Ev                                                                                                                                                                      
11832fe0  _ZSt17__throw_bad_allocv                                                                                                                                                                 
11832980  _ZSt18uncaught_exceptionv                                                                                                                                                                
11835370  _ZTIN10__cxxabiv117__class_type_infoE                                                                                                                                                    
1183537c  _ZTIN10__cxxabiv120__si_class_type_infoE                                                                                                                                                 
11835388  _ZTIN10__cxxabiv121__vmi_class_type_infoE                                                                                                                                                
11835394  _ZTINSt3__210__stdinbufIcEE                                                                                                                                                              
118353a0  _ZTINSt3__210__stdinbufIwEE                                                                                                                                                              
118354d0  _ZTINSt3__210__time_putE                                                                                                                                                                 
118354d8  _ZTINSt3__210ctype_baseE                                                                                                                                                                 
118354e0  _ZTINSt3__210money_baseE                                                                                                                                                                 
118348fc  _ZTINSt3__210moneypunctIcLb0EEE                                                                                                                                                          
1183491c  _ZTINSt3__210moneypunctIcLb1EEE                                                                                                                                                          
1183493c  _ZTINSt3__210moneypunctIwLb0EEE                                                                                                                                                          
1183495c  _ZTINSt3__210moneypunctIwLb1EEE                                                                                                                                                          
118354e8  _ZTINSt3__211__money_getIcEE                                                                                                                                                             
118354f0  _ZTINSt3__211__money_getIwEE                                                                                                                                                             
118354f8  _ZTINSt3__211__money_putIcEE                                                                                                                                                             
11835500  _ZTINSt3__211__money_putIwEE                                                                                                                                                             
118353ac  _ZTINSt3__211__stdoutbufIcEE                                                                                                                                                             
118353b8  _ZTINSt3__211__stdoutbufIwEE                                                                                                                                                             
11835508  _ZTINSt3__212codecvt_baseE                                                                                                                                                               
11834e7c  _ZTINSt3__213basic_istreamIcNS_11char_traitsIcEEEE                                                                                                                                       
11834e94  _ZTINSt3__213basic_istreamIwNS_11char_traitsIwEEEE                                                                                                                                       
11834eac  _ZTINSt3__213basic_ostreamIcNS_11char_traitsIcEEEE                                                                                                                                       
11834ec4  _ZTINSt3__213basic_ostreamIwNS_11char_traitsIwEEEE                                                                                                                                       
11835510  _ZTINSt3__213messages_baseE                                                                                                                                                              
11835518  _ZTINSt3__214__num_get_baseE                                                                                                                                                             
11835520  _ZTINSt3__214__num_put_baseE                                                                                                                                                             
11835528  _ZTINSt3__214__shared_countE                                                                                                                                                             
11835530  _ZTINSt3__215basic_streambufIcNS_11char_traitsIcEEEE                                                                                                                                     
11835538  _ZTINSt3__215basic_streambufIwNS_11char_traitsIwEEEE                                                                                                                                     
11835540  _ZTINSt3__220__time_get_c_storageIcEE                                                                                                                                                    
11835548  _ZTINSt3__220__time_get_c_storageIwEE                                                                                                                                                    
1183497c  _ZTINSt3__25ctypeIcEE                                                                                                                                                                    
1183499c  _ZTINSt3__25ctypeIwEE                                                                                                                                                                    
118353c4  _ZTINSt3__26locale5__impE                                                                                                                                                                
118353d0  _ZTINSt3__26locale5facetE                                                                                                                                                                
118349bc  _ZTINSt3__27codecvtIDiciEE                                                                                                                                                               
118349dc  _ZTINSt3__27codecvtIDsciEE                                                                                                                                                               
118349fc  _ZTINSt3__27codecvtIcciEE                                                                                                                                                                
11834a1c  _ZTINSt3__27codecvtIwciEE                                                                                                                                                                
118353dc  _ZTINSt3__27collateIcEE                                                                                                                                                                  
118353e8  _ZTINSt3__27collateIwEE                                                                                                                                                                  
11834a3c  _ZTINSt3__27num_getIcNS_19istreambuf_iteratorIcNS_11char_traitsIcEEEEEE                                                                                                                  
11834a5c  _ZTINSt3__27num_getIwNS_19istreambuf_iteratorIwNS_11char_traitsIwEEEEEE                                                                                                                  
11834a7c  _ZTINSt3__27num_putIcNS_19ostreambuf_iteratorIcNS_11char_traitsIcEEEEEE                                                                                                                  
11834a9c  _ZTINSt3__27num_putIwNS_19ostreambuf_iteratorIwNS_11char_traitsIwEEEEEE                                                                                                                  
11835550  _ZTINSt3__28ios_baseE                                                                                                                                                                    
11834abc  _ZTINSt3__28messagesIcEE                                                                                                                                                                 
11834adc  _ZTINSt3__28messagesIwEE                                                                                                                                                                 
118353f4  _ZTINSt3__28numpunctIcEE                                                                                                                                                                 
11835400  _ZTINSt3__28numpunctIwEE                                                                                                                                                                 
118346d4  _ZTINSt3__28time_getIcNS_19istreambuf_iteratorIcNS_11char_traitsIcEEEEEE                                                                                                                 
118346fc  _ZTINSt3__28time_getIwNS_19istreambuf_iteratorIwNS_11char_traitsIwEEEEEE                                                                                                                 
11834afc  _ZTINSt3__28time_putIcNS_19ostreambuf_iteratorIcNS_11char_traitsIcEEEEEE                                                                                                                 
11834b1c  _ZTINSt3__28time_putIwNS_19ostreambuf_iteratorIwNS_11char_traitsIwEEEEEE                                                                                                                 
11834edc  _ZTINSt3__29__num_getIcEE                                                                                                                                                                
11834ef4  _ZTINSt3__29__num_getIwEE                                                                                                                                                                
11834f0c  _ZTINSt3__29__num_putIcEE                                                                                                                                                                
11834f24  _ZTINSt3__29__num_putIwEE                                                                                                                                                                
1183540c  _ZTINSt3__29basic_iosIcNS_11char_traitsIcEEEE                                                                                                                                            
11835418  _ZTINSt3__29basic_iosIwNS_11char_traitsIwEEEE                                                                                                                                            
11834b3c  _ZTINSt3__29money_getIcNS_19istreambuf_iteratorIcNS_11char_traitsIcEEEEEE                                                                                                                
11834b5c  _ZTINSt3__29money_getIwNS_19istreambuf_iteratorIwNS_11char_traitsIwEEEEEE                                                                                                                
11834b7c  _ZTINSt3__29money_putIcNS_19ostreambuf_iteratorIcNS_11char_traitsIcEEEEEE                                                                                                                
11834b9c  _ZTINSt3__29money_putIwNS_19ostreambuf_iteratorIwNS_11char_traitsIwEEEEEE                                                                                                                
11835558  _ZTINSt3__29time_baseE                                                                                                                                                                   
11835560  _ZTISt9type_info                                                                                                                                                                         
11834860  _ZTSN10__cxxabiv117__class_type_infoE                                                                                                                                                    
118347f0  _ZTSN10__cxxabiv120__si_class_type_infoE                                                                                                                                                 
118347c8  _ZTSN10__cxxabiv121__vmi_class_type_infoE                                                                                                                                                
11834f40  _ZTSNSt3__210__stdinbufIcEE                                                                                                                                                              
11834f58  _ZTSNSt3__210__stdinbufIwEE                                                                                                                                                              
118350f0  _ZTSNSt3__210__time_putE                                                                                                                                                                 
11835108  _ZTSNSt3__210ctype_baseE                                                                                                                                                                 
11835120  _ZTSNSt3__210money_baseE                                                                                                                                                                 
11834c40  _ZTSNSt3__210moneypunctIcLb0EEE                                                                                                                                                          
11834c60  _ZTSNSt3__210moneypunctIcLb1EEE                                                                                                                                                          
11834c80  _ZTSNSt3__210moneypunctIwLb0EEE                                                                                                                                                          
11834ca0  _ZTSNSt3__210moneypunctIwLb1EEE                                                                                                                                                          
11834d60  _ZTSNSt3__211__money_getIcEE                                                                                                                                                             
11834d80  _ZTSNSt3__211__money_getIwEE                                                                                                                                                             
11834da0  _ZTSNSt3__211__money_putIcEE                                                                                                                                                             
11834dc0  _ZTSNSt3__211__money_putIwEE                                                                                                                                                             
11834de0  _ZTSNSt3__211__stdoutbufIcEE                                                                                                                                                             
11834e00  _ZTSNSt3__211__stdoutbufIwEE                                                                                                                                                             
11834fd0  _ZTSNSt3__212codecvt_baseE                                                                                                                                                               
118345b8  _ZTSNSt3__213basic_istreamIcNS_11char_traitsIcEEEE                                                                                                                                       
118345e8  _ZTSNSt3__213basic_istreamIwNS_11char_traitsIwEEEE                                                                                                                                       
11834618  _ZTSNSt3__213basic_ostreamIcNS_11char_traitsIcEEEE                                                                                                                                       
11834648  _ZTSNSt3__213basic_ostreamIwNS_11char_traitsIwEEEE                                                                                                                                       
11834f70  _ZTSNSt3__213messages_baseE                                                                                                                                                              
11834e20  _ZTSNSt3__214__num_get_baseE                                                                                                                                                             
11834e40  _ZTSNSt3__214__num_put_baseE                                                                                                                                                             
11834e60  _ZTSNSt3__214__shared_countE                                                                                                                                                             
11834398  _ZTSNSt3__215basic_streambufIcNS_11char_traitsIcEEEE                                                                                                                                     
118343d0  _ZTSNSt3__215basic_streambufIwNS_11char_traitsIwEEEE                                                                                                                                     
11834888  _ZTSNSt3__220__time_get_c_storageIcEE                                                                                                                                                    
118348b0  _ZTSNSt3__220__time_get_c_storageIwEE                                                                                                                                                    
11835228  _ZTSNSt3__25ctypeIcEE                                                                                                                                                                    
11835240  _ZTSNSt3__25ctypeIwEE                                                                                                                                                                    
11835030  _ZTSNSt3__26locale5__impE                                                                                                                                                                
11835048  _ZTSNSt3__26locale5facetE                                                                                                                                                                
11834fe8  _ZTSNSt3__27codecvtIDiciEE                                                                                                                                                               
11835000  _ZTSNSt3__27codecvtIDsciEE                                                                                                                                                               
11835060  _ZTSNSt3__27codecvtIcciEE                                                                                                                                                                
11835078  _ZTSNSt3__27codecvtIwciEE                                                                                                                                                                
11835198  _ZTSNSt3__27collateIcEE                                                                                                                                                                  
118351b0  _ZTSNSt3__27collateIwEE                                                                                                                                                                  
11833e68  _ZTSNSt3__27num_getIcNS_19istreambuf_iteratorIcNS_11char_traitsIcEEEEEE                                                                                                                  
11833eb0  _ZTSNSt3__27num_getIwNS_19istreambuf_iteratorIwNS_11char_traitsIwEEEEEE                                                                                                                  
11833ef8  _ZTSNSt3__27num_putIcNS_19ostreambuf_iteratorIcNS_11char_traitsIcEEEEEE                                                                                                                  
11833f40  _ZTSNSt3__27num_putIwNS_19ostreambuf_iteratorIwNS_11char_traitsIwEEEEEE                                                                                                                  
11835258  _ZTSNSt3__28ios_baseE                                                                                                                                                                    
11835138  _ZTSNSt3__28messagesIcEE                                                                                                                                                                 
11835150  _ZTSNSt3__28messagesIwEE                                                                                                                                                                 
11835168  _ZTSNSt3__28numpunctIcEE                                                                                                                                                                 
11835180  _ZTSNSt3__28numpunctIwEE                                                                                                                                                                 
11833d00  _ZTSNSt3__28time_getIcNS_19istreambuf_iteratorIcNS_11char_traitsIcEEEEEE                                                                                                                 
11833d48  _ZTSNSt3__28time_getIwNS_19istreambuf_iteratorIwNS_11char_traitsIwEEEEEE                                                                                                                 
11833d90  _ZTSNSt3__28time_putIcNS_19ostreambuf_iteratorIcNS_11char_traitsIcEEEEEE                                                                                                                 
11833dd8  _ZTSNSt3__28time_putIwNS_19ostreambuf_iteratorIwNS_11char_traitsIwEEEEEE                                                                                                                 
11835090  _ZTSNSt3__29__num_getIcEE                                                                                                                                                                
118350a8  _ZTSNSt3__29__num_getIwEE                                                                                                                                                                
118350c0  _ZTSNSt3__29__num_putIcEE                                                                                                                                                                
118350d8  _ZTSNSt3__29__num_putIwEE                                                                                                                                                                
11834678  _ZTSNSt3__29basic_iosIcNS_11char_traitsIcEEEE                                                                                                                                            
118346a8  _ZTSNSt3__29basic_iosIwNS_11char_traitsIwEEEE                                                                                                                                            
11833be0  _ZTSNSt3__29money_getIcNS_19istreambuf_iteratorIcNS_11char_traitsIcEEEEEE                                                                                                                
11833c28  _ZTSNSt3__29money_getIwNS_19istreambuf_iteratorIwNS_11char_traitsIwEEEEEE                                                                                                                
11833c70  _ZTSNSt3__29money_putIcNS_19ostreambuf_iteratorIcNS_11char_traitsIcEEEEEE                                                                                                                
11833cb8  _ZTSNSt3__29money_putIwNS_19ostreambuf_iteratorIwNS_11char_traitsIwEEEEEE                                                                                                                
11835210  _ZTSNSt3__29time_baseE                                                                                                                                                                   
11835330  _ZTSSt9type_info                                                                                                                                                                         
11834430  _ZTTNSt3__213basic_istreamIcNS_11char_traitsIcEEEE                                                                                                                                       
11834460  _ZTTNSt3__213basic_istreamIwNS_11char_traitsIwEEEE                                                                                                                                       
11834490  _ZTTNSt3__213basic_ostreamIcNS_11char_traitsIcEEEE                                                                                                                                       
118344c0  _ZTTNSt3__213basic_ostreamIwNS_11char_traitsIwEEEE                                                                                                                                       
118352c0  _ZTVN10__cxxabiv117__class_type_infoE                                                                                                                                                    
118352d0  _ZTVN10__cxxabiv120__si_class_type_infoE                                                                                                                                                 
118352e0  _ZTVN10__cxxabiv121__vmi_class_type_infoE                                                                                                                                                
11833fd0  _ZTVNSt3__210__stdinbufIcEE                                                                                                                                                              
11834010  _ZTVNSt3__210__stdinbufIwEE                                                                                                                                                              
11834210  _ZTVNSt3__210moneypunctIcLb0EEE                                                                                                                                                          
11834248  _ZTVNSt3__210moneypunctIcLb1EEE                                                                                                                                                          
11834280  _ZTVNSt3__210moneypunctIwLb0EEE                                                                                                                                                          
118342b8  _ZTVNSt3__210moneypunctIwLb1EEE                                                                                                                                                          
11834050  _ZTVNSt3__211__stdoutbufIcEE                                                                                                                                                             
11834090  _ZTVNSt3__211__stdoutbufIwEE                                                                                                                                                             
11834408  _ZTVNSt3__213basic_istreamIcNS_11char_traitsIcEEEE                                                                                                                                       
11834438  _ZTVNSt3__213basic_istreamIwNS_11char_traitsIwEEEE                                                                                                                                       
11834468  _ZTVNSt3__213basic_ostreamIcNS_11char_traitsIcEEEE                                                                                                                                       
11834498  _ZTVNSt3__213basic_ostreamIwNS_11char_traitsIwEEEE                                                                                                                                       
118351c8  _ZTVNSt3__214__shared_countE                                                                                                                                                             
118340d0  _ZTVNSt3__215basic_streambufIcNS_11char_traitsIcEEEE                                                                                                                                     
11834110  _ZTVNSt3__215basic_streambufIwNS_11char_traitsIwEEEE                                                                                                                                     
118342f0  _ZTVNSt3__25ctypeIcEE                                                                                                                                                                    
11833f88  _ZTVNSt3__25ctypeIwEE                                                                                                                                                                    
118351e0  _ZTVNSt3__26locale5__impE                                                                                                                                                                
118351f8  _ZTVNSt3__26locale5facetE                                                                                                                                                                
118344c8  _ZTVNSt3__27codecvtIDiciEE                                                                                                                                                               
118344f8  _ZTVNSt3__27codecvtIDsciEE                                                                                                                                                               
11834528  _ZTVNSt3__27codecvtIcciEE                                                                                                                                                                
11834558  _ZTVNSt3__27codecvtIwciEE                                                                                                                                                                
11834bc0  _ZTVNSt3__27collateIcEE                                                                                                                                                                  
11834be0  _ZTVNSt3__27collateIwEE                                                                                                                                                                  
11834150  _ZTVNSt3__27num_getIcNS_19istreambuf_iteratorIcNS_11char_traitsIcEEEEEE                                                                                                                  
11834190  _ZTVNSt3__27num_getIwNS_19istreambuf_iteratorIwNS_11char_traitsIwEEEEEE                                                                                                                  
11834328  _ZTVNSt3__27num_putIcNS_19ostreambuf_iteratorIcNS_11char_traitsIcEEEEEE                                                                                                                  
11834360  _ZTVNSt3__27num_putIwNS_19ostreambuf_iteratorIwNS_11char_traitsIwEEEEEE                                                                                                                  
118352f0  _ZTVNSt3__28ios_baseE                                                                                                                                                                    
11834c00  _ZTVNSt3__28messagesIcEE                                                                                                                                                                 
11834c20  _ZTVNSt3__28messagesIwEE                                                                                                                                                                 
11834728  _ZTVNSt3__28numpunctIcEE                                                                                                                                                                 
11834750  _ZTVNSt3__28numpunctIwEE                                                                                                                                                                 
11833ae8  _ZTVNSt3__28time_getIcNS_19istreambuf_iteratorIcNS_11char_traitsIcEEEEEE                                                                                                                 
11833b40  _ZTVNSt3__28time_getIwNS_19istreambuf_iteratorIwNS_11char_traitsIwEEEEEE                                                                                                                 
11834f88  _ZTVNSt3__28time_putIcNS_19ostreambuf_iteratorIcNS_11char_traitsIcEEEEEE                                                                                                                 
11834fa0  _ZTVNSt3__28time_putIwNS_19ostreambuf_iteratorIwNS_11char_traitsIwEEEEEE                                                                                                                 
11835300  _ZTVNSt3__29basic_iosIcNS_11char_traitsIcEEEE                                                                                                                                            
11835310  _ZTVNSt3__29basic_iosIwNS_11char_traitsIwEEEE                                                                                                                                            
11834cc0  _ZTVNSt3__29money_getIcNS_19istreambuf_iteratorIcNS_11char_traitsIcEEEEEE                                                                                                                
11834ce0  _ZTVNSt3__29money_getIwNS_19istreambuf_iteratorIwNS_11char_traitsIwEEEEEE                                                                                                                
11834d00  _ZTVNSt3__29money_putIcNS_19ostreambuf_iteratorIcNS_11char_traitsIcEEEEEE                                                                                                                
11834d20  _ZTVNSt3__29money_putIwNS_19ostreambuf_iteratorIwNS_11char_traitsIwEEEEEE                                                                                                                
118329a0  _ZTv0_n12_NSt3__213basic_istreamIcNS_11char_traitsIcEEED0Ev                                                                                                                              
118329c0  _ZTv0_n12_NSt3__213basic_istreamIcNS_11char_traitsIcEEED1Ev                                                                                                                              
118329e0  _ZTv0_n12_NSt3__213basic_istreamIwNS_11char_traitsIwEEED0Ev                                                                                                                              
11832a00  _ZTv0_n12_NSt3__213basic_istreamIwNS_11char_traitsIwEEED1Ev                                                                                                                              
11832a20  _ZTv0_n12_NSt3__213basic_ostreamIcNS_11char_traitsIcEEED0Ev                                                                                                                              
11832a40  _ZTv0_n12_NSt3__213basic_ostreamIcNS_11char_traitsIcEEED1Ev                                                                                                                              
11832a60  _ZTv0_n12_NSt3__213basic_ostreamIwNS_11char_traitsIwEEED0Ev                                                                                                                              
11832a80  _ZTv0_n12_NSt3__213basic_ostreamIwNS_11char_traitsIwEEED1Ev                                                                                                                              
11835568  _ZZNKSt3__220__vector_base_commonILb1EE20__throw_length_errorEvEs                                                                                                                        
11835320  _ZZNKSt3__221__basic_string_commonILb1EE20__throw_length_errorEvEs                                                                                                                       
118355e0  _ZZNKSt3__27num_getIcNS_19istreambuf_iteratorIcNS_11char_traitsIcEEEEE6do_getES4_S4_RNS_8ios_baseERjRPvEs                                                                                
118355e8  _ZZNKSt3__27num_getIwNS_19istreambuf_iteratorIwNS_11char_traitsIwEEEEE6do_getES4_S4_RNS_8ios_baseERjRPvEs                                                                                
11835640  _ZZNKSt3__27num_putIcNS_19ostreambuf_iteratorIcNS_11char_traitsIcEEEEE6do_putES4_RNS_8ios_baseEcdEs                                                                                      
11835610  _ZZNKSt3__27num_putIcNS_19ostreambuf_iteratorIcNS_11char_traitsIcEEEEE6do_putES4_RNS_8ios_baseEceEs                                                                                      
11835618  _ZZNKSt3__27num_putIcNS_19ostreambuf_iteratorIcNS_11char_traitsIcEEEEE6do_putES4_RNS_8ios_baseEclEs                                                                                      
11835620  _ZZNKSt3__27num_putIcNS_19ostreambuf_iteratorIcNS_11char_traitsIcEEEEE6do_putES4_RNS_8ios_baseEcmEs                                                                                      
118355f0  _ZZNKSt3__27num_putIcNS_19ostreambuf_iteratorIcNS_11char_traitsIcEEEEE6do_putES4_RNS_8ios_baseEcxEs                                                                                      
118355f8  _ZZNKSt3__27num_putIcNS_19ostreambuf_iteratorIcNS_11char_traitsIcEEEEE6do_putES4_RNS_8ios_baseEcyEs                                                                                      
11835648  _ZZNKSt3__27num_putIwNS_19ostreambuf_iteratorIwNS_11char_traitsIwEEEEE6do_putES4_RNS_8ios_baseEwdEs                                                                                      
11835628  _ZZNKSt3__27num_putIwNS_19ostreambuf_iteratorIwNS_11char_traitsIwEEEEE6do_putES4_RNS_8ios_baseEweEs                                                                                      
11835630  _ZZNKSt3__27num_putIwNS_19ostreambuf_iteratorIwNS_11char_traitsIwEEEEE6do_putES4_RNS_8ios_baseEwlEs                                                                                      
11835638  _ZZNKSt3__27num_putIwNS_19ostreambuf_iteratorIwNS_11char_traitsIwEEEEE6do_putES4_RNS_8ios_baseEwmEs                                                                                      
11835600  _ZZNKSt3__27num_putIwNS_19ostreambuf_iteratorIwNS_11char_traitsIwEEEEE6do_putES4_RNS_8ios_baseEwxEs                                                                                      
11835608  _ZZNKSt3__27num_putIwNS_19ostreambuf_iteratorIwNS_11char_traitsIwEEEEE6do_putES4_RNS_8ios_baseEwyEs                                                                                      
118355d0  _ZZNKSt3__29money_getIcNS_19istreambuf_iteratorIcNS_11char_traitsIcEEEEE6do_getES4_S4_bRNS_8ios_baseERjReEs_0                                                                            
118355d8  _ZZNKSt3__29money_getIwNS_19istreambuf_iteratorIwNS_11char_traitsIwEEEEE6do_getES4_S4_bRNS_8ios_baseERjReEs_0                                                                            
118355a8  _ZZNKSt3__29money_putIcNS_19ostreambuf_iteratorIcNS_11char_traitsIcEEEEE6do_putES4_bRNS_8ios_baseEceEs                                                                                   
118355b0  _ZZNKSt3__29money_putIwNS_19ostreambuf_iteratorIwNS_11char_traitsIwEEEEE6do_putES4_bRNS_8ios_baseEweEs                                                                                   
11834778  _ZZNSt3__210__stdinbufIcE5imbueERKNS_6localeEEs                                                                                                                                          
118347a0  _ZZNSt3__210__stdinbufIwE5imbueERKNS_6localeEEs                                                                                                                                          
11838380  _ZZNSt3__234_GLOBAL__N__10_locale_cpp_a71832034makeINS_10moneypunctIcLb0EEEjEERT_T0_E3buf                                                                                                
11838388  _ZZNSt3__234_GLOBAL__N__10_locale_cpp_a71832034makeINS_10moneypunctIcLb1EEEjEERT_T0_E3buf                                                                                                
11838390  _ZZNSt3__234_GLOBAL__N__10_locale_cpp_a71832034makeINS_10moneypunctIwLb0EEEjEERT_T0_E3buf                                                                                                
11838398  _ZZNSt3__234_GLOBAL__N__10_locale_cpp_a71832034makeINS_10moneypunctIwLb1EEEjEERT_T0_E3buf                                                                                                
118382b8  _ZZNSt3__234_GLOBAL__N__10_locale_cpp_a71832034makeINS_5ctypeIcEEDnbjEERT_T0_T1_T2_E3buf                                                                                                 
118383a0  _ZZNSt3__234_GLOBAL__N__10_locale_cpp_a71832034makeINS_5ctypeIwEEjEERT_T0_E3buf                                                                                                          
11837d60  _ZZNSt3__234_GLOBAL__N__10_locale_cpp_a71832034makeINS_6locale5__impEjEERT_T0_E3buf                                                                                                      
118383a8  _ZZNSt3__234_GLOBAL__N__10_locale_cpp_a71832034makeINS_7codecvtIDiciEEjEERT_T0_E3buf                                                                                                     
118383b0  _ZZNSt3__234_GLOBAL__N__10_locale_cpp_a71832034makeINS_7codecvtIDsciEEjEERT_T0_E3buf                                                                                                     
118383b8  _ZZNSt3__234_GLOBAL__N__10_locale_cpp_a71832034makeINS_7codecvtIcciEEjEERT_T0_E3buf                                                                                                      
118382c8  _ZZNSt3__234_GLOBAL__N__10_locale_cpp_a71832034makeINS_7codecvtIwciEEjEERT_T0_E3buf                                                                                                      
118383c0  _ZZNSt3__234_GLOBAL__N__10_locale_cpp_a71832034makeINS_7collateIcEEjEERT_T0_E3buf                                                                                                        
118383c8  _ZZNSt3__234_GLOBAL__N__10_locale_cpp_a71832034makeINS_7collateIwEEjEERT_T0_E3buf                                                                                                        
118383d0  _ZZNSt3__234_GLOBAL__N__10_locale_cpp_a71832034makeINS_7num_getIcNS_19istreambuf_iteratorIcNS_11char_traitsIcEEEEEEjEERT_T0_E3buf                                                        
118383d8  _ZZNSt3__234_GLOBAL__N__10_locale_cpp_a71832034makeINS_7num_getIwNS_19istreambuf_iteratorIwNS_11char_traitsIwEEEEEEjEERT_T0_E3buf                                                        
118383e0  _ZZNSt3__234_GLOBAL__N__10_locale_cpp_a71832034makeINS_7num_putIcNS_19ostreambuf_iteratorIcNS_11char_traitsIcEEEEEEjEERT_T0_E3buf                                                        
118383e8  _ZZNSt3__234_GLOBAL__N__10_locale_cpp_a71832034makeINS_7num_putIwNS_19ostreambuf_iteratorIwNS_11char_traitsIwEEEEEEjEERT_T0_E3buf                                                        
118383f0  _ZZNSt3__234_GLOBAL__N__10_locale_cpp_a71832034makeINS_8messagesIcEEjEERT_T0_E3buf                                                                                                       
118383f8  _ZZNSt3__234_GLOBAL__N__10_locale_cpp_a71832034makeINS_8messagesIwEEjEERT_T0_E3buf                                                                                                       
11838258  _ZZNSt3__234_GLOBAL__N__10_locale_cpp_a71832034makeINS_8numpunctIcEEjEERT_T0_E3buf                                                                                                       
11838270  _ZZNSt3__234_GLOBAL__N__10_locale_cpp_a71832034makeINS_8numpunctIwEEjEERT_T0_E3buf                                                                                                       
118382d8  _ZZNSt3__234_GLOBAL__N__10_locale_cpp_a71832034makeINS_8time_getIcNS_19istreambuf_iteratorIcNS_11char_traitsIcEEEEEEjEERT_T0_E3buf                                                       
118382e8  _ZZNSt3__234_GLOBAL__N__10_locale_cpp_a71832034makeINS_8time_getIwNS_19istreambuf_iteratorIwNS_11char_traitsIwEEEEEEjEERT_T0_E3buf                                                       
118382f8  _ZZNSt3__234_GLOBAL__N__10_locale_cpp_a71832034makeINS_8time_putIcNS_19ostreambuf_iteratorIcNS_11char_traitsIcEEEEEEjEERT_T0_E3buf                                                       
11838308  _ZZNSt3__234_GLOBAL__N__10_locale_cpp_a71832034makeINS_8time_putIwNS_19ostreambuf_iteratorIwNS_11char_traitsIwEEEEEEjEERT_T0_E3buf                                                       
11838400  _ZZNSt3__234_GLOBAL__N__10_locale_cpp_a71832034makeINS_9money_getIcNS_19istreambuf_iteratorIcNS_11char_traitsIcEEEEEEjEERT_T0_E3buf                                                      
11838408  _ZZNSt3__234_GLOBAL__N__10_locale_cpp_a71832034makeINS_9money_getIwNS_19istreambuf_iteratorIwNS_11char_traitsIwEEEEEEjEERT_T0_E3buf                                                      
11838410  _ZZNSt3__234_GLOBAL__N__10_locale_cpp_a71832034makeINS_9money_putIcNS_19ostreambuf_iteratorIcNS_11char_traitsIcEEEEEEjEERT_T0_E3buf                                                      
11838418  _ZZNSt3__234_GLOBAL__N__10_locale_cpp_a71832034makeINS_9money_putIwNS_19ostreambuf_iteratorIwNS_11char_traitsIwEEEEEEjEERT_T0_E3buf                                                      
11833e20  _ZZNSt3__29allocatorIwE8allocateEjPKvEs                                                                                                                                                  
11832d80  _ZdaPv                                                                                                                                                                                   
11832da0  _ZdlPv                                                                                                                                                                                   
11832dc0  _ZdlPvj                                                                                                                                                                                  
11832de0  _Znaj                                                                                                                                                                                    
1182d620  _Znwj                                                                                                                                                                                    
11838c30  __CIOBUF_                                                                                                                                                                                
11838df0  __TI_CINIT_Base                                                                                                                                                                          
11838e08  __TI_CINIT_Limit                                                                                                                                                                         
11838de8  __TI_Handler_Table_Base                                                                                                                                                                  
11838df0  __TI_Handler_Table_Limit                                                                                                                                                                 
1183564c  __TI_INITARRAY_Base                                                                                                                                                                      
11835650  __TI_INITARRAY_Limit                                                                                                                                                                     
11836650  __TI_STACK_END                                                                                                                                                                           
00001000  __TI_STACK_SIZE                                                                                                                                                                          
11838434  __TI_STATIC_BASE                                                                                                                                                                         
00001000  __TI_SYSMEM_SIZE                                                                                                                                                                         
UNDEFED   __TI_TLS_INIT_Base                                                                                                                                                                       
UNDEFED   __TI_TLS_INIT_Limit                                                                                                                                                                      
11828720  __TI_auto_init_nobinit                                                                                                                                                                   
11824380  __TI_buff_read                                                                                                                                                                           
1182c240  __TI_cleanup                                                                                                                                                                             
11838740  __TI_cleanup_ptr                                                                                                                                                                         
11828820  __TI_closefile                                                                                                                                                                           
11833000  __TI_decompress_none                                                                                                                                                                     
11833020  __TI_decompress_rle24                                                                                                                                                                    
1182c2e0  __TI_doflush                                                                                                                                                                             
11838744  __TI_dtors_ptr                                                                                                                                                                           
11838748  __TI_enable_exit_profile_output                                                                                                                                                          
11830ee0  __TI_frcmpyd_div                                                                                                                                                                         
1183883c  __TI_ft_end                                                                                                                                                                              
118299c0  __TI_ltoa                                                                                                                                                                                
ffffffff  __TI_pprof_out_hndl                                                                                                                                                                      
11800000  __TI_printfi                                                                                                                                                                             
ffffffff  __TI_prof_data_size                                                                                                                                                                      
ffffffff  __TI_prof_data_start                                                                                                                                                                     
1182c380  __TI_rd_ok                                                                                                                                                                               
1182d6a0  __TI_readmsg                                                                                                                                                                             
118020c0  __TI_scanfi                                                                                                                                                                              
1182b280  __TI_tls_init                                                                                                                                                                            
11837650  __TI_tmpnams                                                                                                                                                                             
1182ee20  __TI_writemsg                                                                                                                                                                            
11829aa0  __TI_wrt_ok                                                                                                                                                                              
11832e00  ___mb_cur_max_l                                                                                                                                                                          
11832e20  __abort_execution                                                                                                                                                                        
ffffffff  __binit__                                                                                                                                                                                
1180e5c0  __c6xabi_divd                                                                                                                                                                            
1181d320  __c6xabi_divf                                                                                                                                                                            
11829b80  __c6xabi_divi                                                                                                                                                                            
1182b100  __c6xabi_divu                                                                                                                                                                            
11821dc0  __c6xabi_divul                                                                                                                                                                           
1181e700  __c6xabi_divull                                                                                                                                                                          
11832e40  __c6xabi_errno_addr                                                                                                                                                                      
11830f20  __c6xabi_isinf                                                                                                                                                                           
1182d720  __c6xabi_llshl                                                                                                                                                                           
1182ee80  __c6xabi_llshru                                                                                                                                                                          
11832ee0  __c6xabi_pop_rts                                                                                                                                                                         
11832f00  __c6xabi_push_rts                                                                                                                                                                        
1182c420  __c6xabi_remu                                                                                                                                                                            
1182eee0  __c6xabi_remull                                                                                                                                                                          
ffffffff  __c_args__                                                                                                                                                                               
1182a140  __cxa_atexit                                                                                                                                                                             
11832e60  __cxa_guard_acquire                                                                                                                                                                      
11832e80  __cxa_guard_release                                                                                                                                                                      
11832ea0  __cxa_ia64_exit                                                                                                                                                                          
11832ec0  __cxa_pure_virtual                                                                                                                                                                       
118278c0  __cxa_vec_ctor                                                                                                                                                                           
1182d7a0  __cxa_vec_dtor                                                                                                                                                                           
11829b80  __divi                                                                                                                                                                                   
1182b100  __divu                                                                                                                                                                                   
11838434  __dso_handle                                                                                                                                                                             
11838844  __errno                                                                                                                                                                                  
11832ee0  __pop_rts                                                                                                                                                                                
11832f00  __push_rts                                                                                                                                                                               
1182c420  __remu                                                                                                                                                                                   
1182ef40  __sti___12_iostream_cpp_d173592a__prio101                                                                                                                                                
11812380  __vla_alloc                                                                                                                                                                              
118261c0  __vla_dealloc                                                                                                                                                                            
11830fa0  _args_main                                                                                                                                                                               
1182d820  _c_int00                                                                                                                                                                                 
11833860  _ctypes_                                                                                                                                                                                 
118386b8  _device                                                                                                                                                                                  
11838438  _ftable                                                                                                                                                                                  
11838834  _lock                                                                                                                                                                                    
11832f40  _nop                                                                                                                                                                                     
11832f60  _signbit                                                                                                                                                                                 
11835650  _stack                                                                                                                                                                                   
11838618  _stream                                                                                                                                                                                  
1182efa0  _subcull                                                                                                                                                                                 
11836650  _sys_memory                                                                                                                                                                              
11832f80  _system_post_cinit                                                                                                                                                                       
11832fa0  _system_pre_init                                                                                                                                                                         
11838730  _tz                                                                                                                                                                                      
11838838  _unlock                                                                                                                                                                                  
11832fe0  abort                                                                                                                                                                                    
11831060  asprintf_l                                                                                                                                                                               
11828b20  atoi                                                                                                                                                                                     
ffffffff  binit                                                                                                                                                                                    
11829c60  close                                                                                                                                                                                    
11838844  errno                                                                                                                                                                                    
11829d40  exit                                                                                                                                                                                     
11828c20  fflush                                                                                                                                                                                   
11826580  fgetc                                                                                                                                                                                    
11826580  fgetwc                                                                                                                                                                                   
1182c560  finddevice                                                                                                                                                                               
11815a20  free                                                                                                                                                                                     
11833040  freelocale                                                                                                                                                                               
11821f80  frexp                                                                                                                                                                                    
11821f80  frexpl                                                                                                                                                                                   
11828d20  fseek                                                                                                                                                                                    
11815de0  fwrite                                                                                                                                                                                   
11826580  getc                                                                                                                                                                                     
11827b00  getdevice                                                                                                                                                                                
118310a0  iswlower                                                                                                                                                                                 
11822140  ldexp                                                                                                                                                                                    
11822300  ldexpf                                                                                                                                                                                   
11822140  ldexpl                                                                                                                                                                                   
1182f000  lseek                                                                                                                                                                                    
1181382c  main                                                                                                                                                                                     
118224c0  malloc                                                                                                                                                                                   
11833060  mbrlen                                                                                                                                                                                   
11833080  mbrlen_l                                                                                                                                                                                 
118310e0  mbrtowc_l                                                                                                                                                                                
11828e20  mbsnrtowcs                                                                                                                                                                               
118330a0  mbsnrtowcs_l                                                                                                                                                                             
118330c0  mbsrtowcs_l                                                                                                                                                                              
1182c600  mbtowc                                                                                                                                                                                   
118330e0  mbtowc_l                                                                                                                                                                                 
1182f060  memccpy                                                                                                                                                                                  
1182c6a0  memcpy                                                                                                                                                                                   
1182c740  memmove                                                                                                                                                                                  
11829e20  memset                                                                                                                                                                                   
11833100  newlocale                                                                                                                                                                                
11838378  parmbuf                                                                                                                                                                                  
1182f0c0  read                                                                                                                                                                                     
1181a020  realloc                                                                                                                                                                                  
1182da20  remove                                                                                                                                                                                   
11822140  scalbn                                                                                                                                                                                   
11822300  scalbnf                                                                                                                                                                                  
11822140  scalbnl                                                                                                                                                                                  
11822680  setvbuf                                                                                                                                                                                  
1182d9a0  snprintf                                                                                                                                                                                 
11831120  snprintf_l                                                                                                                                                                               
1182f120  sscanf                                                                                                                                                                                   
11831160  sscanf_l                                                                                                                                                                                 
1182f180  strcpy                                                                                                                                                                                   
11807180  strftime                                                                                                                                                                                 
11833120  strftime_l                                                                                                                                                                               
118311a0  strlen                                                                                                                                                                                   
11807d80  strtod                                                                                                                                                                                   
11833140  strtod_l                                                                                                                                                                                 
118086a0  strtof                                                                                                                                                                                   
11833160  strtof_l                                                                                                                                                                                 
118168e0  strtol                                                                                                                                                                                   
11807d80  strtold                                                                                                                                                                                  
11833180  strtold_l                                                                                                                                                                                
118115e0  strtoll                                                                                                                                                                                  
118331a0  strtoll_l                                                                                                                                                                                
1181bf80  strtoul                                                                                                                                                                                  
118127c0  strtoull                                                                                                                                                                                 
118331c0  strtoull_l                                                                                                                                                                               
11828f20  ungetc                                                                                                                                                                                   
1182da20  unlink                                                                                                                                                                                   
1182c880  vasprintf                                                                                                                                                                                
118331e0  vasprintf_l                                                                                                                                                                              
1182daa0  vsnprintf                                                                                                                                                                                
118311e0  vsscanf                                                                                                                                                                                  
1182db20  wcrtomb                                                                                                                                                                                  
11833200  wcrtomb_l                                                                                                                                                                                
11831220  wcslen                                                                                                                                                                                   
118232e0  wcsnrtombs                                                                                                                                                                               
11833220  wcsnrtombs_l                                                                                                                                                                             
11833240  wmemcpy                                                                                                                                                                                  
11833260  wmemmove                                                                                                                                                                                 
1182dba0  wmemset                                                                                                                                                                                  
1182f240  write                                                                                                                                                                                    


GLOBAL SYMBOLS: SORTED BY Symbol Address 

address   name                                                                                                                                                                                     
-------   ----                                                                                                                                                                                     
00001000  __TI_STACK_SIZE                                                                                                                                                                          
00001000  __TI_SYSMEM_SIZE                                                                                                                                                                         
11800000  __TI_printfi                                                                                                                                                                             
118020c0  __TI_scanfi                                                                                                                                                                              
11804140  _ZNSt3__29money_getIcNS_19istreambuf_iteratorIcNS_11char_traitsIcEEEEE8__do_getERS4_S4_bRKNS_6localeEjRjRbRKNS_5ctypeIcEERNS_10unique_ptrIcPFvPvEEERPcSM_                                
11805a40  _ZNSt3__29money_getIwNS_19istreambuf_iteratorIwNS_11char_traitsIwEEEEE8__do_getERS4_S4_bRKNS_6localeEjRjRbRKNS_5ctypeIwEERNS_10unique_ptrIwPFvPvEEERPwSM_                                
11807180  strftime                                                                                                                                                                                 
11807d80  strtod                                                                                                                                                                                   
11807d80  strtold                                                                                                                                                                                  
118086a0  strtof                                                                                                                                                                                   
11808f80  _ZNSt3__26locale5__impC1Ej                                                                                                                                                               
11808f80  _ZNSt3__26locale5__impC2Ej                                                                                                                                                               
118097c0  _ZNSt3__211__money_putIcE13__gather_infoEbbRKNS_6localeERNS_10money_base7patternERcS8_RNS_12basic_stringIcNS_11char_traitsIcEENS_9allocatorIcEEEESF_SF_Ri                                
11809f60  _ZNSt3__211__money_putIwE8__formatEPwRS2_S3_jPKwS5_RKNS_5ctypeIwEEbRKNS_10money_base7patternEwwRKNS_12basic_stringIcNS_11char_traitsIcEENS_9allocatorIcEEEERKNSE_IwNSF_IwEENSH_IwEEEESQ_i
1180a6e0  _ZNSt3__211__money_putIwE13__gather_infoEbbRKNS_6localeERNS_10money_base7patternERwS8_RNS_12basic_stringIcNS_11char_traitsIcEENS_9allocatorIcEEEERNS9_IwNSA_IwEENSC_IwEEEESJ_Ri          
1180ae40  _ZNSt3__29__num_putIcE23__widen_and_group_floatEPcS2_S2_S2_RS2_S3_RKNS_6localeE                                                                                                          
1180b580  _ZNSt3__29__num_putIwE23__widen_and_group_floatEPcS2_S2_PwRS3_S4_RKNS_6localeE                                                                                                           
1180bcc0  _ZNKSt3__28time_getIwNS_19istreambuf_iteratorIwNS_11char_traitsIwEEEEE6do_getES4_S4_RNS_8ios_baseERjP2tmcc                                                                               
1180c3e0  _ZNKSt3__28time_getIcNS_19istreambuf_iteratorIcNS_11char_traitsIcEEEEE6do_getES4_S4_RNS_8ios_baseERjP2tmcc                                                                               
1180cac0  _ZNSt3__211__money_getIcE13__gather_infoEbRKNS_6localeERNS_10money_base7patternERcS8_RNS_12basic_stringIcNS_11char_traitsIcEENS_9allocatorIcEEEESF_SF_SF_Ri                              
1180d1a0  _ZNSt3__211__money_getIwE13__gather_infoEbRKNS_6localeERNS_10money_base7patternERwS8_RNS_12basic_stringIcNS_11char_traitsIcEENS_9allocatorIcEEEERNS9_IwNSA_IwEENSC_IwEEEESJ_SJ_Ri        
1180d880  _ZNSt3__211__money_putIcE8__formatEPcRS2_S3_jPKcS5_RKNS_5ctypeIcEEbRKNS_10money_base7patternEccRKNS_12basic_stringIcNS_11char_traitsIcEENS_9allocatorIcEEEESL_SL_i                       
1180e5c0  __c6xabi_divd                                                                                                                                                                            
1180ebc0  _ZNSt3__214__scan_keywordINS_19istreambuf_iteratorIwNS_11char_traitsIwEEEEPKNS_12basic_stringIwS3_NS_9allocatorIwEEEENS_5ctypeIwEEEET0_RT_SE_SD_SD_RKT1_Rjb                              
1180f160  _ZNSt3__29__num_putIcE21__widen_and_group_intEPcS2_S2_S2_RS2_S3_RKNS_6localeE                                                                                                            
1180f6e0  _ZNSt3__29__num_putIwE21__widen_and_group_intEPcS2_S2_PwRS3_S4_RKNS_6localeE                                                                                                             
1180fc60  _ZNKSt3__29money_getIcNS_19istreambuf_iteratorIcNS_11char_traitsIcEEEEE6do_getES4_S4_bRNS_8ios_baseERjRNS_12basic_stringIcS3_NS_9allocatorIcEEEE                                         
118101a0  _ZNSt3__214__scan_keywordINS_19istreambuf_iteratorIcNS_11char_traitsIcEEEEPKNS_12basic_stringIcS3_NS_9allocatorIcEEEENS_5ctypeIcEEEET0_RT_SE_SD_SD_RKT1_Rjb                              
118106e0  _ZNSt3__28ios_base4InitC1Ev                                                                                                                                                              
118106e0  _ZNSt3__28ios_base4InitC2Ev                                                                                                                                                              
11810c00  _ZNKSt3__29money_putIwNS_19ostreambuf_iteratorIwNS_11char_traitsIwEEEEE6do_putES4_bRNS_8ios_baseEwe                                                                                      
11811100  _ZNKSt3__29money_getIwNS_19istreambuf_iteratorIwNS_11char_traitsIwEEEEE6do_getES4_S4_bRNS_8ios_baseERjRNS_12basic_stringIwS3_NS_9allocatorIwEEEE                                         
118115e0  strtoll                                                                                                                                                                                  
11811aa0  _ZNKSt3__29money_putIcNS_19ostreambuf_iteratorIcNS_11char_traitsIcEEEEE6do_putES4_bRNS_8ios_baseEce                                                                                      
11811f40  _ZNKSt3__29money_putIwNS_19ostreambuf_iteratorIwNS_11char_traitsIwEEEEE6do_putES4_bRNS_8ios_baseEwRKNS_12basic_stringIwS3_NS_9allocatorIwEEEE                                            
11812380  __vla_alloc                                                                                                                                                                              
118127c0  strtoull                                                                                                                                                                                 
11813000  _ZNKSt3__29money_putIcNS_19ostreambuf_iteratorIcNS_11char_traitsIcEEEEE6do_putES4_bRNS_8ios_baseEcRKNS_12basic_stringIcS3_NS_9allocatorIcEEEE                                            
1181382c  main                                                                                                                                                                                     
11813924  _ZN3LEDC1ENS_7LEDTypeE                                                                                                                                                                   
11813924  _ZN3LEDC2ENS_7LEDTypeE                                                                                                                                                                   
11813a28  _ZN3LEDD1Ev                                                                                                                                                                              
11813a28  _ZN3LEDD2Ev                                                                                                                                                                              
11813b10  _ZN3LED10LEDControlENS_9LEDStatusE                                                                                                                                                       
11813fe0  _ZNKSt3__27num_getIwNS_19istreambuf_iteratorIwNS_11char_traitsIwEEEEE15__do_get_signedIlEES4_S4_S4_RNS_8ios_baseERjRT_                                                                   
118143a0  _ZNKSt3__27num_getIwNS_19istreambuf_iteratorIwNS_11char_traitsIwEEEEE15__do_get_signedIxEES4_S4_S4_RNS_8ios_baseERjRT_                                                                   
11814760  _ZNKSt3__27num_getIwNS_19istreambuf_iteratorIwNS_11char_traitsIwEEEEE17__do_get_unsignedIjEES4_S4_S4_RNS_8ios_baseERjRT_                                                                 
11814b20  _ZNKSt3__27num_getIwNS_19istreambuf_iteratorIwNS_11char_traitsIwEEEEE17__do_get_unsignedImEES4_S4_S4_RNS_8ios_baseERjRT_                                                                 
11814ee0  _ZNKSt3__27num_getIwNS_19istreambuf_iteratorIwNS_11char_traitsIwEEEEE17__do_get_unsignedItEES4_S4_S4_RNS_8ios_baseERjRT_                                                                 
118152a0  _ZNKSt3__27num_getIwNS_19istreambuf_iteratorIwNS_11char_traitsIwEEEEE17__do_get_unsignedIyEES4_S4_S4_RNS_8ios_baseERjRT_                                                                 
11815660  _ZNKSt3__28time_getIwNS_19istreambuf_iteratorIwNS_11char_traitsIwEEEEE3getES4_S4_RNS_8ios_baseERjP2tmPKwSC_                                                                              
11815a20  free                                                                                                                                                                                     
11815de0  fwrite                                                                                                                                                                                   
118161a0  _ZNKSt3__27num_getIwNS_19istreambuf_iteratorIwNS_11char_traitsIwEEEEE6do_getES4_S4_RNS_8ios_baseERjRPv                                                                                   
11816540  _ZNKSt3__29money_getIcNS_19istreambuf_iteratorIcNS_11char_traitsIcEEEEE6do_getES4_S4_bRNS_8ios_baseERjRe                                                                                 
118168e0  strtol                                                                                                                                                                                   
11817000  _ZNKSt3__27num_getIcNS_19istreambuf_iteratorIcNS_11char_traitsIcEEEEE15__do_get_signedIlEES4_S4_S4_RNS_8ios_baseERjRT_                                                                   
11817380  _ZNKSt3__27num_getIcNS_19istreambuf_iteratorIcNS_11char_traitsIcEEEEE15__do_get_signedIxEES4_S4_S4_RNS_8ios_baseERjRT_                                                                   
11817700  _ZNKSt3__27num_getIcNS_19istreambuf_iteratorIcNS_11char_traitsIcEEEEE17__do_get_unsignedIjEES4_S4_S4_RNS_8ios_baseERjRT_                                                                 
11817a80  _ZNKSt3__27num_getIcNS_19istreambuf_iteratorIcNS_11char_traitsIcEEEEE17__do_get_unsignedImEES4_S4_S4_RNS_8ios_baseERjRT_                                                                 
11817e00  _ZNKSt3__27num_getIcNS_19istreambuf_iteratorIcNS_11char_traitsIcEEEEE17__do_get_unsignedItEES4_S4_S4_RNS_8ios_baseERjRT_                                                                 
11818180  _ZNKSt3__27num_getIcNS_19istreambuf_iteratorIcNS_11char_traitsIcEEEEE17__do_get_unsignedIyEES4_S4_S4_RNS_8ios_baseERjRT_                                                                 
11818500  _ZNKSt3__27num_getIcNS_19istreambuf_iteratorIcNS_11char_traitsIcEEEEE6do_getES4_S4_RNS_8ios_baseERjRPv                                                                                   
11818be0  _ZNKSt3__27num_getIcNS_19istreambuf_iteratorIcNS_11char_traitsIcEEEEE23__do_get_floating_pointIdEES4_S4_S4_RNS_8ios_baseERjRT_                                                           
11818f40  _ZNKSt3__27num_getIcNS_19istreambuf_iteratorIcNS_11char_traitsIcEEEEE23__do_get_floating_pointIeEES4_S4_S4_RNS_8ios_baseERjRT_                                                           
118192a0  _ZNKSt3__27num_getIcNS_19istreambuf_iteratorIcNS_11char_traitsIcEEEEE23__do_get_floating_pointIfEES4_S4_S4_RNS_8ios_baseERjRT_                                                           
11819600  _ZNKSt3__27num_getIwNS_19istreambuf_iteratorIwNS_11char_traitsIwEEEEE23__do_get_floating_pointIdEES4_S4_S4_RNS_8ios_baseERjRT_                                                           
11819960  _ZNKSt3__27num_getIwNS_19istreambuf_iteratorIwNS_11char_traitsIwEEEEE23__do_get_floating_pointIeEES4_S4_S4_RNS_8ios_baseERjRT_                                                           
11819cc0  _ZNKSt3__27num_getIwNS_19istreambuf_iteratorIwNS_11char_traitsIwEEEEE23__do_get_floating_pointIfEES4_S4_S4_RNS_8ios_baseERjRT_                                                           
1181a020  realloc                                                                                                                                                                                  
1181a6c0  _ZNKSt3__28time_getIcNS_19istreambuf_iteratorIcNS_11char_traitsIcEEEEE3getES4_S4_RNS_8ios_baseERjP2tmPKcSC_                                                                              
1181aa00  _ZNKSt3__220__time_get_c_storageIcE8__monthsEv                                                                                                                                           
1181ad20  _ZNKSt3__220__time_get_c_storageIwE8__monthsEv                                                                                                                                           
1181b040  _ZNKSt3__27num_putIwNS_19ostreambuf_iteratorIwNS_11char_traitsIwEEEEE6do_putES4_RNS_8ios_baseEwe                                                                                         
1181b360  _ZNSt3__216__pad_and_outputIwNS_11char_traitsIwEEEENS_19ostreambuf_iteratorIT_T0_EES6_PKS4_S8_S8_RNS_8ios_baseES4_                                                                       
1181b680  _ZNKSt3__27codecvtIwciE5do_inERiPKcS4_RS4_PwS6_RS6_                                                                                                                                      
1181b980  _ZNKSt3__27codecvtIwciE6do_outERiPKwS4_RS4_PcS6_RS6_                                                                                                                                     
1181bc80  _ZNKSt3__29money_getIwNS_19istreambuf_iteratorIwNS_11char_traitsIwEEEEE6do_getES4_S4_bRNS_8ios_baseERjRe                                                                                 
1181bf80  strtoul                                                                                                                                                                                  
1181c280  _ZNKSt3__27num_putIcNS_19ostreambuf_iteratorIcNS_11char_traitsIcEEEEE6do_putES4_RNS_8ios_baseEcd                                                                                         
1181c560  _ZNKSt3__27num_putIcNS_19ostreambuf_iteratorIcNS_11char_traitsIcEEEEE6do_putES4_RNS_8ios_baseEce                                                                                         
1181c840  _ZNKSt3__27num_putIwNS_19ostreambuf_iteratorIwNS_11char_traitsIwEEEEE6do_putES4_RNS_8ios_baseEwd                                                                                         
1181cb20  _ZNSt3__29__num_getIwE19__stage2_float_loopEwRbRcPcRS4_wwRKNS_12basic_stringIcNS_11char_traitsIcEENS_9allocatorIcEEEEPjRSE_RjPw                                                          
1181cde0  _ZNSt3__212basic_stringIwNS_11char_traitsIwEENS_9allocatorIwEEE21__grow_by_and_replaceEjjjjjjPKw                                                                                         
1181d080  _ZNSt3__29__num_getIcE19__stage2_float_loopEcRbRcPcRS4_ccRKNS_12basic_stringIcNS_11char_traitsIcEENS_9allocatorIcEEEEPjRSE_RjS4_                                                         
1181d320  __c6xabi_divf                                                                                                                                                                            
1181db00  _ZNSt3__212basic_stringIwNS_11char_traitsIwEENS_9allocatorIwEEE7reserveEj                                                                                                                
1181dfe0  _ZNSt3__210__stdinbufIcE9__getcharEb                                                                                                                                                     
1181e240  _ZNSt3__210__stdinbufIwE9__getcharEb                                                                                                                                                     
1181e4a0  _ZNSt3__212basic_stringIcNS_11char_traitsIcEENS_9allocatorIcEEE21__grow_by_and_replaceEjjjjjjPKc                                                                                         
1181e700  __c6xabi_divull                                                                                                                                                                          
1181e960  _ZNKSt3__220__time_get_c_storageIcE7__weeksEv                                                                                                                                            
1181eba0  _ZNKSt3__220__time_get_c_storageIwE7__weeksEv                                                                                                                                            
1181ede0  _ZNSt3__212basic_stringIcNS_11char_traitsIcEENS_9allocatorIcEEE7reserveEj                                                                                                                
1181f020  _ZNSt3__212basic_stringIwNS_11char_traitsIwEENS_9allocatorIwEEE9__grow_byEjjjjjj                                                                                                         
1181f260  _ZNKSt3__27collateIcE7do_hashEPKcS3_                                                                                                                                                     
1181f480  _ZNSt3__220__get_up_to_n_digitsIwNS_19istreambuf_iteratorIwNS_11char_traitsIwEEEEEEiRT0_S5_RjRKNS_5ctypeIT_EEi                                                                           
1181f6a0  _ZNSt3__29__num_getIcE17__stage2_int_loopEciPcRS2_RjcRKNS_12basic_stringIcNS_11char_traitsIcEENS_9allocatorIcEEEEPjRSD_PKc                                                               
1181f8c0  _ZNKSt3__27num_putIwNS_19ostreambuf_iteratorIwNS_11char_traitsIwEEEEE6do_putES4_RNS_8ios_baseEwb                                                                                         
1181fac0  _ZNSt3__212basic_stringIcNS_11char_traitsIcEENS_9allocatorIcEEE9__grow_byEjjjjjj                                                                                                         
1181fcc0  _ZNSt3__220__get_up_to_n_digitsIcNS_19istreambuf_iteratorIcNS_11char_traitsIcEEEEEEiRT0_S5_RjRKNS_5ctypeIT_EEi                                                                           
1181fec0  _ZNSt3__26vectorIPNS_6locale5facetENS_15__sso_allocatorIS3_Lj28EEEE8__appendEj                                                                                                           
118200c0  _ZNSt3__29__num_getIwE17__stage2_int_loopEwiPcRS2_RjwRKNS_12basic_stringIcNS_11char_traitsIcEENS_9allocatorIcEEEEPjRSD_PKw                                                               
118204c0  _ZNKSt3__27collateIwE12do_transformEPKwS3_                                                                                                                                               
118206a0  _ZNKSt3__27num_getIcNS_19istreambuf_iteratorIcNS_11char_traitsIcEEEEE6do_getES4_S4_RNS_8ios_baseERjRb                                                                                    
11820880  _ZNKSt3__27num_getIwNS_19istreambuf_iteratorIwNS_11char_traitsIwEEEEE6do_getES4_S4_RNS_8ios_baseERjRb                                                                                    
11820a60  _ZNKSt3__27num_putIcNS_19ostreambuf_iteratorIcNS_11char_traitsIcEEEEE6do_putES4_RNS_8ios_baseEcb                                                                                         
11820c40  _ZNKSt3__210__time_put8__do_putEPwRS1_PK2tmcc                                                                                                                                            
11820e00  _ZNKSt3__220__time_get_c_storageIcE3__XEv                                                                                                                                                
11820fc0  _ZNKSt3__220__time_get_c_storageIcE3__cEv                                                                                                                                                
11821180  _ZNKSt3__220__time_get_c_storageIcE3__rEv                                                                                                                                                
11821340  _ZNKSt3__220__time_get_c_storageIcE3__xEv                                                                                                                                                
11821500  _ZNKSt3__220__time_get_c_storageIwE3__XEv                                                                                                                                                
118216c0  _ZNKSt3__220__time_get_c_storageIwE3__cEv                                                                                                                                                
11821880  _ZNKSt3__220__time_get_c_storageIwE3__rEv                                                                                                                                                
11821a40  _ZNKSt3__220__time_get_c_storageIwE3__xEv                                                                                                                                                
11821c00  _ZNSt3__213basic_ostreamIcNS_11char_traitsIcEEElsEi                                                                                                                                      
11821dc0  __c6xabi_divul                                                                                                                                                                           
11821f80  frexp                                                                                                                                                                                    
11821f80  frexpl                                                                                                                                                                                   
11822140  ldexp                                                                                                                                                                                    
11822140  ldexpl                                                                                                                                                                                   
11822140  scalbn                                                                                                                                                                                   
11822140  scalbnl                                                                                                                                                                                  
11822300  ldexpf                                                                                                                                                                                   
11822300  scalbnf                                                                                                                                                                                  
118224c0  malloc                                                                                                                                                                                   
11822680  setvbuf                                                                                                                                                                                  
11822840  HOSTrename                                                                                                                                                                               
118229e0  _ZNKSt3__27collateIcE12do_transformEPKcS3_                                                                                                                                               
11822b60  _ZNKSt3__28numpunctIcE11do_truenameEv                                                                                                                                                    
11822ce0  _ZNKSt3__28numpunctIcE12do_falsenameEv                                                                                                                                                   
11822e60  _ZNSt3__211__stdoutbufIcE8overflowEi                                                                                                                                                     
11822fe0  _ZNSt3__211__stdoutbufIwE8overflowEi                                                                                                                                                     
11823160  _ZNSt3__219__double_or_nothingIwEEvRNS_10unique_ptrIT_PFvPvEEERPS2_S9_                                                                                                                   
118232e0  wcsnrtombs                                                                                                                                                                               
11823460  _ZNKSt3__27num_putIcNS_19ostreambuf_iteratorIcNS_11char_traitsIcEEEEE6do_putES4_RNS_8ios_baseEcl                                                                                         
118235c0  _ZNKSt3__27num_putIcNS_19ostreambuf_iteratorIcNS_11char_traitsIcEEEEE6do_putES4_RNS_8ios_baseEcm                                                                                         
11823720  _ZNKSt3__27num_putIwNS_19ostreambuf_iteratorIwNS_11char_traitsIwEEEEE6do_putES4_RNS_8ios_baseEwl                                                                                         
11823880  _ZNKSt3__27num_putIwNS_19ostreambuf_iteratorIwNS_11char_traitsIwEEEEE6do_putES4_RNS_8ios_baseEwm                                                                                         
118239e0  _ZNSt3__210__stdinbufIcE9pbackfailEi                                                                                                                                                     
11823b40  _ZNSt3__210__stdinbufIwE9pbackfailEi                                                                                                                                                     
11823ca0  _ZNSt3__212basic_stringIcNS_11char_traitsIcEENS_9allocatorIcEEE6appendEPKcj                                                                                                              
11823e00  _ZNSt3__212basic_stringIcNS_11char_traitsIcEENS_9allocatorIcEEE6appendEjc                                                                                                                
11823f60  _ZNSt3__212basic_stringIwNS_11char_traitsIwEENS_9allocatorIwEEE6appendEPKwj                                                                                                              
118240c0  _ZNSt3__212basic_stringIwNS_11char_traitsIwEENS_9allocatorIwEEE9push_backEw                                                                                                              
11824220  _ZNSt3__219__double_or_nothingIjEEvRNS_10unique_ptrIT_PFvPvEEERPS2_S9_                                                                                                                   
11824380  __TI_buff_read                                                                                                                                                                           
11824780  _ZNKSt3__27num_putIcNS_19ostreambuf_iteratorIcNS_11char_traitsIcEEEEE6do_putES4_RNS_8ios_baseEcx                                                                                         
118248c0  _ZNKSt3__27num_putIcNS_19ostreambuf_iteratorIcNS_11char_traitsIcEEEEE6do_putES4_RNS_8ios_baseEcy                                                                                         
11824a00  _ZNKSt3__27num_putIwNS_19ostreambuf_iteratorIwNS_11char_traitsIwEEEEE6do_putES4_RNS_8ios_baseEwx                                                                                         
11824b40  _ZNKSt3__27num_putIwNS_19ostreambuf_iteratorIwNS_11char_traitsIwEEEEE6do_putES4_RNS_8ios_baseEwy                                                                                         
11824c80  _ZNKSt3__28numpunctIwE11do_truenameEv                                                                                                                                                    
11824dc0  _ZNKSt3__28numpunctIwE12do_falsenameEv                                                                                                                                                   
11824f00  _ZNKSt3__28time_getIcNS_19istreambuf_iteratorIcNS_11char_traitsIcEEEEE13__get_percentERS4_S4_RjRKNS_5ctypeIcEE                                                                           
11825040  _ZNKSt3__28time_getIwNS_19istreambuf_iteratorIwNS_11char_traitsIwEEEEE13__get_percentERS4_S4_RjRKNS_5ctypeIwEE                                                                           
11825180  _ZNSt3__212basic_stringIcNS_11char_traitsIcEENS_9allocatorIcEEE6assignEPKcj                                                                                                              
118252c0  _ZNSt3__212basic_stringIcNS_11char_traitsIcEENS_9allocatorIcEEE9push_backEc                                                                                                              
11825400  _ZNSt3__212basic_stringIwNS_11char_traitsIwEENS_9allocatorIwEEE6__initEPKwj                                                                                                              
11825540  _ZNSt3__212basic_stringIwNS_11char_traitsIwEENS_9allocatorIwEEE6assignEPKwj                                                                                                              
11825680  _ZNSt3__214__num_put_base14__format_floatEPcPKcj                                                                                                                                         
118257c0  _ZNSt3__215basic_streambufIwNS_11char_traitsIwEEE6xsgetnEPwi                                                                                                                             
11825900  _ZNSt3__215basic_streambufIwNS_11char_traitsIwEEE6xsputnEPKwi                                                                                                                            
11825a40  _ZNSt3__216__check_groupingERKNS_12basic_stringIcNS_11char_traitsIcEENS_9allocatorIcEEEEPjS8_Rj                                                                                          
11825b80  _ZNSt3__216__pad_and_outputIcNS_11char_traitsIcEEEENS_19ostreambuf_iteratorIT_T0_EES6_PKS4_S8_S8_RNS_8ios_baseES4_                                                                       
11825cc0  _ZNSt3__219__double_or_nothingIcEEvRNS_10unique_ptrIT_PFvPvEEERPS2_S9_                                                                                                                   
11825e00  _ZNSt3__224__put_character_sequenceIcNS_11char_traitsIcEEEERNS_13basic_ostreamIT_T0_EES7_PKS4_j                                                                                          
11825f40  _ZNSt3__225__num_get_signed_integralIlEET_PKcS3_Rji                                                                                                                                      
11826080  _ZNSt3__225__num_get_signed_integralIxEET_PKcS3_Rji                                                                                                                                      
118261c0  __vla_dealloc                                                                                                                                                                            
11826580  fgetc                                                                                                                                                                                    
11826580  fgetwc                                                                                                                                                                                   
11826580  getc                                                                                                                                                                                     
118266c0  _ZNKSt3__220__time_get_c_storageIcE7__am_pmEv                                                                                                                                            
118267e0  _ZNKSt3__220__time_get_c_storageIwE7__am_pmEv                                                                                                                                            
11826900  _ZNKSt3__27num_putIwNS_19ostreambuf_iteratorIwNS_11char_traitsIwEEEEE6do_putES4_RNS_8ios_baseEwPKv                                                                                       
11826a20  _ZNKSt3__28time_getIcNS_19istreambuf_iteratorIcNS_11char_traitsIcEEEEE11__get_am_pmERiRS4_S4_RjRKNS_5ctypeIcEE                                                                           
11826b40  _ZNKSt3__28time_getIwNS_19istreambuf_iteratorIwNS_11char_traitsIwEEEEE11__get_am_pmERiRS4_S4_RjRKNS_5ctypeIwEE                                                                           
11826c60  _ZNKSt3__28time_putIwNS_19ostreambuf_iteratorIwNS_11char_traitsIwEEEEE6do_putES4_RNS_8ios_baseEwPK2tmcc                                                                                  
11826d80  _ZNSt3__213basic_ostreamIcNS_11char_traitsIcEEE3putEc                                                                                                                                    
11826ea0  _ZNSt3__213basic_ostreamIcNS_11char_traitsIcEEE6sentryD1Ev                                                                                                                               
11826fc0  _ZNSt3__213basic_ostreamIwNS_11char_traitsIwEEE6sentryD1Ev                                                                                                                               
118270e0  _ZNSt3__215basic_streambufIcNS_11char_traitsIcEEE6xsgetnEPci                                                                                                                             
11827200  _ZNSt3__215basic_streambufIcNS_11char_traitsIcEEE6xsputnEPKci                                                                                                                            
11827320  _ZNSt3__227__num_get_unsigned_integralIjEET_PKcS3_Rji                                                                                                                                    
11827440  _ZNSt3__227__num_get_unsigned_integralImEET_PKcS3_Rji                                                                                                                                    
11827560  _ZNSt3__227__num_get_unsigned_integralItEET_PKcS3_Rji                                                                                                                                    
11827680  _ZNSt3__227__num_get_unsigned_integralIyEET_PKcS3_Rji                                                                                                                                    
118277a0  _ZNSt3__26locale5__impD1Ev                                                                                                                                                               
118277a0  _ZNSt3__26locale5__impD2Ev                                                                                                                                                               
118278c0  __cxa_vec_ctor                                                                                                                                                                           
11827b00  getdevice                                                                                                                                                                                
11827c20  _ZNKSt3__27num_putIcNS_19ostreambuf_iteratorIcNS_11char_traitsIcEEEEE6do_putES4_RNS_8ios_baseEcPKv                                                                                       
11827d20  _ZNKSt3__28time_getIcNS_19istreambuf_iteratorIcNS_11char_traitsIcEEEEE17__get_white_spaceERS4_S4_RjRKNS_5ctypeIcEE                                                                       
11827e20  _ZNKSt3__28time_putIcNS_19ostreambuf_iteratorIcNS_11char_traitsIcEEEEE6do_putES4_RNS_8ios_baseEcPK2tmcc                                                                                  
11827f20  _ZNSt3__212basic_stringIcNS_11char_traitsIcEENS_9allocatorIcEEE6__initEPKcj                                                                                                              
11828020  _ZNSt3__212basic_stringIcNS_11char_traitsIcEENS_9allocatorIcEEE6__initEjc                                                                                                                
11828120  _ZNSt3__212basic_stringIcNS_11char_traitsIcEENS_9allocatorIcEEE6resizeEjc                                                                                                                
11828220  _ZNSt3__215__num_get_floatIdEET_PKcS3_Rj                                                                                                                                                 
11828320  _ZNSt3__215__num_get_floatIeEET_PKcS3_Rj                                                                                                                                                 
11828420  _ZNSt3__215__num_get_floatIfEET_PKcS3_Rj                                                                                                                                                 
11828520  _ZNSt3__26locale5__imp7installEPNS0_5facetEl                                                                                                                                             
11828620  _ZNSt3__2neIwNS_11char_traitsIwEEEEbRKNS_19istreambuf_iteratorIT_T0_EES8_                                                                                                                
11828720  __TI_auto_init_nobinit                                                                                                                                                                   
11828820  __TI_closefile                                                                                                                                                                           
11828b20  atoi                                                                                                                                                                                     
11828c20  fflush                                                                                                                                                                                   
11828d20  fseek                                                                                                                                                                                    
11828e20  mbsnrtowcs                                                                                                                                                                               
11828f20  ungetc                                                                                                                                                                                   
11829020  HOSTlseek                                                                                                                                                                                
11829100  HOSTopen                                                                                                                                                                                 
118291e0  HOSTwrite                                                                                                                                                                                
118292c0  _ZNKSt3__219istreambuf_iteratorIcNS_11char_traitsIcEEE5equalERKS3_                                                                                                                       
118293a0  _ZNKSt3__219istreambuf_iteratorIwNS_11char_traitsIwEEE5equalERKS3_                                                                                                                       
11829480  _ZNKSt3__27codecvtIwciE9do_lengthERiPKcS4_j                                                                                                                                              
11829560  _ZNKSt3__28time_getIwNS_19istreambuf_iteratorIwNS_11char_traitsIwEEEEE17__get_white_spaceERS4_S4_RjRKNS_5ctypeIwEE                                                                       
11829640  _ZNSt3__213basic_ostreamIcNS_11char_traitsIcEEE5flushEv                                                                                                                                  
11829720  _ZNSt3__213basic_ostreamIwNS_11char_traitsIwEEE5flushEv                                                                                                                                  
11829800  _ZNSt3__214__split_bufferIPNS_6locale5facetERNS_15__sso_allocatorIS3_Lj28EEEEC1EjjS6_                                                                                                    
118298e0  _ZNSt3__2eqIcNS_11char_traitsIcEEEEbRKNS_19istreambuf_iteratorIT_T0_EES8_                                                                                                                
118299c0  __TI_ltoa                                                                                                                                                                                
11829aa0  __TI_wrt_ok                                                                                                                                                                              
11829b80  __c6xabi_divi                                                                                                                                                                            
11829b80  __divi                                                                                                                                                                                   
11829c60  close                                                                                                                                                                                    
11829d40  exit                                                                                                                                                                                     
11829e20  memset                                                                                                                                                                                   
11829f00  HOSTread                                                                                                                                                                                 
11829fc0  HOSTunlink                                                                                                                                                                               
1182a080  _Z23__finalize_destructionsPP20a_needed_destructionPv                                                                                                                                    
1182a140  __cxa_atexit                                                                                                                                                                             
1182a200  _ZNKSt3__25ctypeIcE10do_tolowerEPcPKc                                                                                                                                                    
1182a2c0  _ZNKSt3__25ctypeIcE10do_toupperEPcPKc                                                                                                                                                    
1182a380  _ZNKSt3__25ctypeIwE10do_tolowerEPwPKw                                                                                                                                                    
1182a440  _ZNKSt3__25ctypeIwE10do_toupperEPwPKw                                                                                                                                                    
1182a500  _ZNKSt3__28time_getIcNS_19istreambuf_iteratorIcNS_11char_traitsIcEEEEE17__get_weekdaynameERiRS4_S4_RjRKNS_5ctypeIcEE                                                                     
1182a5c0  _ZNKSt3__28time_getIwNS_19istreambuf_iteratorIwNS_11char_traitsIwEEEEE17__get_weekdaynameERiRS4_S4_RjRKNS_5ctypeIwEE                                                                     
1182a680  _ZNKSt3__29basic_iosIcNS_11char_traitsIcEEE4fillEv                                                                                                                                       
1182a740  _ZNSt3__210__stdinbufIcE5imbueERKNS_6localeE                                                                                                                                             
1182a800  _ZNSt3__211__stdoutbufIcE4syncEv                                                                                                                                                         
1182a8c0  _ZNSt3__211__stdoutbufIcE6xsputnEPKci                                                                                                                                                    
1182a980  _ZNSt3__211__stdoutbufIwE4syncEv                                                                                                                                                         
1182aa40  _ZNSt3__211__stdoutbufIwE6xsputnEPKwi                                                                                                                                                    
1182ab00  _ZNSt3__212basic_stringIcNS_11char_traitsIcEENS_9allocatorIcEEEC1ERKS5_                                                                                                                  
1182abc0  _ZNSt3__212basic_stringIwNS_11char_traitsIwEENS_9allocatorIwEEEC1ERKS5_                                                                                                                  
1182ac80  _ZNSt3__213basic_ostreamIcNS_11char_traitsIcEEE6sentryC1ERS3_                                                                                                                            
1182ad40  _ZNSt3__213basic_ostreamIwNS_11char_traitsIwEEE6sentryC1ERS3_                                                                                                                            
1182ae00  _ZNSt3__214__num_put_base12__format_intEPcPKcbj                                                                                                                                          
1182aec0  _ZNSt3__26vectorIPNS_6locale5facetENS_15__sso_allocatorIS3_Lj28EEEE8allocateEj                                                                                                           
1182af80  _ZNSt3__29__num_getIcE19__stage2_float_prepERNS_8ios_baseEPcRcS5_                                                                                                                        
1182b040  _ZNSt3__29__num_getIwE19__stage2_float_prepERNS_8ios_baseEPwRwS5_                                                                                                                        
1182b100  __c6xabi_divu                                                                                                                                                                            
1182b100  __divu                                                                                                                                                                                   
1182b280  __TI_tls_init                                                                                                                                                                            
1182b340  HOSTclose                                                                                                                                                                                
1182b3e0  _ZNKSt3__25ctypeIcE9do_narrowEPKcS3_cPc                                                                                                                                                  
1182b480  _ZNKSt3__27codecvtIwciE10do_unshiftERiPcS3_RS3_                                                                                                                                          
1182b520  _ZNKSt3__27collateIcE10do_compareEPKcS3_S3_S3_                                                                                                                                           
1182b5c0  _ZNKSt3__27collateIwE10do_compareEPKwS3_S3_S3_                                                                                                                                           
1182b660  _ZNKSt3__28time_getIcNS_19istreambuf_iteratorIcNS_11char_traitsIcEEEEE11do_get_dateES4_S4_RNS_8ios_baseERjP2tm                                                                           
1182b700  _ZNKSt3__28time_getIcNS_19istreambuf_iteratorIcNS_11char_traitsIcEEEEE11do_get_yearES4_S4_RNS_8ios_baseERjP2tm                                                                           
1182b7a0  _ZNKSt3__28time_getIcNS_19istreambuf_iteratorIcNS_11char_traitsIcEEEEE14do_get_weekdayES4_S4_RNS_8ios_baseERjP2tm                                                                        
1182b840  _ZNKSt3__28time_getIcNS_19istreambuf_iteratorIcNS_11char_traitsIcEEEEE15__get_monthnameERiRS4_S4_RjRKNS_5ctypeIcEE                                                                       
1182b8e0  _ZNKSt3__28time_getIcNS_19istreambuf_iteratorIcNS_11char_traitsIcEEEEE16do_get_monthnameES4_S4_RNS_8ios_baseERjP2tm                                                                      
1182b980  _ZNKSt3__28time_getIwNS_19istreambuf_iteratorIwNS_11char_traitsIwEEEEE11do_get_dateES4_S4_RNS_8ios_baseERjP2tm                                                                           
1182ba20  _ZNKSt3__28time_getIwNS_19istreambuf_iteratorIwNS_11char_traitsIwEEEEE11do_get_yearES4_S4_RNS_8ios_baseERjP2tm                                                                           
1182bac0  _ZNKSt3__28time_getIwNS_19istreambuf_iteratorIwNS_11char_traitsIwEEEEE14do_get_weekdayES4_S4_RNS_8ios_baseERjP2tm                                                                        
1182bb60  _ZNKSt3__28time_getIwNS_19istreambuf_iteratorIwNS_11char_traitsIwEEEEE15__get_monthnameERiRS4_S4_RjRKNS_5ctypeIwEE                                                                       
1182bc00  _ZNKSt3__28time_getIwNS_19istreambuf_iteratorIwNS_11char_traitsIwEEEEE16do_get_monthnameES4_S4_RNS_8ios_baseERjP2tm                                                                      
1182bca0  _ZNSt3__210__stdinbufIwE5imbueERKNS_6localeE                                                                                                                                             
1182bd40  _ZNSt3__211__stdoutbufIcEC1EP7__sFILEPi                                                                                                                                                  
1182bde0  _ZNSt3__211__stdoutbufIwEC1EP7__sFILEPi                                                                                                                                                  
1182be80  _ZNSt3__214__num_put_base18__identify_paddingEPcS1_RKNS_8ios_baseE                                                                                                                       
1182bf20  _ZNSt3__214__split_bufferIPNS_6locale5facetERNS_15__sso_allocatorIS3_Lj28EEEED1Ev                                                                                                        
1182bfc0  _ZNSt3__26__clocEv                                                                                                                                                                       
1182c060  _ZNSt3__26locale2id5__getEv                                                                                                                                                              
1182c100  _ZNSt3__26locale7classicEv                                                                                                                                                               
1182c1a0  _ZNSt3__26locale8__globalEv                                                                                                                                                              
1182c240  __TI_cleanup                                                                                                                                                                             
1182c2e0  __TI_doflush                                                                                                                                                                             
1182c380  __TI_rd_ok                                                                                                                                                                               
1182c420  __c6xabi_remu                                                                                                                                                                            
1182c420  __remu                                                                                                                                                                                   
1182c560  finddevice                                                                                                                                                                               
1182c600  mbtowc                                                                                                                                                                                   
1182c6a0  memcpy                                                                                                                                                                                   
1182c740  memmove                                                                                                                                                                                  
1182c880  vasprintf                                                                                                                                                                                
1182c920  _ZNKSt3__210__time_put8__do_putEPcRS1_PK2tmcc                                                                                                                                            
1182c9a0  _ZNKSt3__25ctypeIcE10do_tolowerEc                                                                                                                                                        
1182ca20  _ZNKSt3__25ctypeIcE10do_toupperEc                                                                                                                                                        
1182caa0  _ZNKSt3__25ctypeIcE8do_widenEPKcS3_Pc                                                                                                                                                    
1182cb20  _ZNKSt3__25ctypeIwE10do_scan_isEhPKwS3_                                                                                                                                                  
1182cba0  _ZNKSt3__25ctypeIwE10do_tolowerEw                                                                                                                                                        
1182cc20  _ZNKSt3__25ctypeIwE10do_toupperEw                                                                                                                                                        
1182cca0  _ZNKSt3__25ctypeIwE11do_scan_notEhPKwS3_                                                                                                                                                 
1182cd20  _ZNKSt3__27codecvtIDiciE5do_inERiPKcS4_RS4_PDiS6_RS6_                                                                                                                                    
1182cda0  _ZNKSt3__27codecvtIDiciE6do_outERiPKDiS4_RS4_PcS6_RS6_                                                                                                                                   
1182ce20  _ZNKSt3__27codecvtIDsciE5do_inERiPKcS4_RS4_PDsS6_RS6_                                                                                                                                    
1182cea0  _ZNKSt3__27codecvtIDsciE6do_outERiPKDsS4_RS4_PcS6_RS6_                                                                                                                                   
1182cf20  _ZNKSt3__27codecvtIwciE11do_encodingEv                                                                                                                                                   
1182cfa0  _ZNKSt3__27collateIwE7do_hashEPKwS3_                                                                                                                                                     
1182d020  _ZNSt3__210__stdinbufIcEC1EP7__sFILEPi                                                                                                                                                   
1182d0a0  _ZNSt3__210__stdinbufIwEC1EP7__sFILEPi                                                                                                                                                   
1182d120  _ZNSt3__211__stdoutbufIcE5imbueERKNS_6localeE                                                                                                                                            
1182d1a0  _ZNSt3__211__stdoutbufIwE5imbueERKNS_6localeE                                                                                                                                            
1182d220  _ZNSt3__219istreambuf_iteratorIcNS_11char_traitsIcEEEppEv                                                                                                                                
1182d2a0  _ZNSt3__219istreambuf_iteratorIwNS_11char_traitsIwEEEppEv                                                                                                                                
1182d320  _ZNSt3__219ostreambuf_iteratorIcNS_11char_traitsIcEEEaSEc                                                                                                                                
1182d3a0  _ZNSt3__219ostreambuf_iteratorIwNS_11char_traitsIwEEEaSEw                                                                                                                                
1182d420  _ZNSt3__28ios_base16__call_callbacksENS0_5eventE                                                                                                                                         
1182d4a0  _ZNSt3__28ios_baseD1Ev                                                                                                                                                                   
1182d4a0  _ZNSt3__28ios_baseD2Ev                                                                                                                                                                   
1182d520  _ZNSt3__28numpunctIcEC1Ej                                                                                                                                                                
1182d520  _ZNSt3__28numpunctIcEC2Ej                                                                                                                                                                
1182d5a0  _ZNSt3__28numpunctIwEC1Ej                                                                                                                                                                
1182d5a0  _ZNSt3__28numpunctIwEC2Ej                                                                                                                                                                
1182d620  _Znwj                                                                                                                                                                                    
1182d6a0  __TI_readmsg                                                                                                                                                                             
1182d720  __c6xabi_llshl                                                                                                                                                                           
1182d7a0  __cxa_vec_dtor                                                                                                                                                                           
1182d820  _c_int00                                                                                                                                                                                 
1182d9a0  snprintf                                                                                                                                                                                 
1182da20  remove                                                                                                                                                                                   
1182da20  unlink                                                                                                                                                                                   
1182daa0  vsnprintf                                                                                                                                                                                
1182db20  wcrtomb                                                                                                                                                                                  
1182dba0  wmemset                                                                                                                                                                                  
1182dc20  _ZNKSt3__25ctypeIwE5do_isEPKwS3_Ph                                                                                                                                                       
1182dc80  _ZNKSt3__25ctypeIwE9do_narrowEPKwS3_cPc                                                                                                                                                  
1182dce0  _ZNKSt3__28time_getIcNS_19istreambuf_iteratorIcNS_11char_traitsIcEEEEE10__get_hourERiRS4_S4_RjRKNS_5ctypeIcEE                                                                            
1182dd40  _ZNKSt3__28time_getIcNS_19istreambuf_iteratorIcNS_11char_traitsIcEEEEE10__get_yearERiRS4_S4_RjRKNS_5ctypeIcEE                                                                            
1182dda0  _ZNKSt3__28time_getIcNS_19istreambuf_iteratorIcNS_11char_traitsIcEEEEE11__get_monthERiRS4_S4_RjRKNS_5ctypeIcEE                                                                           
1182de00  _ZNKSt3__28time_getIcNS_19istreambuf_iteratorIcNS_11char_traitsIcEEEEE11__get_year4ERiRS4_S4_RjRKNS_5ctypeIcEE                                                                           
1182de60  _ZNKSt3__28time_getIcNS_19istreambuf_iteratorIcNS_11char_traitsIcEEEEE12__get_minuteERiRS4_S4_RjRKNS_5ctypeIcEE                                                                          
1182dec0  _ZNKSt3__28time_getIcNS_19istreambuf_iteratorIcNS_11char_traitsIcEEEEE12__get_secondERiRS4_S4_RjRKNS_5ctypeIcEE                                                                          
1182df20  _ZNKSt3__28time_getIcNS_19istreambuf_iteratorIcNS_11char_traitsIcEEEEE13__get_12_hourERiRS4_S4_RjRKNS_5ctypeIcEE                                                                         
1182df80  _ZNKSt3__28time_getIcNS_19istreambuf_iteratorIcNS_11char_traitsIcEEEEE13__get_weekdayERiRS4_S4_RjRKNS_5ctypeIcEE                                                                         
1182dfe0  _ZNKSt3__28time_getIcNS_19istreambuf_iteratorIcNS_11char_traitsIcEEEEE18__get_day_year_numERiRS4_S4_RjRKNS_5ctypeIcEE                                                                    
1182e040  _ZNKSt3__28time_getIcNS_19istreambuf_iteratorIcNS_11char_traitsIcEEEEE9__get_dayERiRS4_S4_RjRKNS_5ctypeIcEE                                                                              
1182e0a0  _ZNKSt3__28time_getIwNS_19istreambuf_iteratorIwNS_11char_traitsIwEEEEE10__get_hourERiRS4_S4_RjRKNS_5ctypeIwEE                                                                            
1182e100  _ZNKSt3__28time_getIwNS_19istreambuf_iteratorIwNS_11char_traitsIwEEEEE10__get_yearERiRS4_S4_RjRKNS_5ctypeIwEE                                                                            
1182e160  _ZNKSt3__28time_getIwNS_19istreambuf_iteratorIwNS_11char_traitsIwEEEEE11__get_monthERiRS4_S4_RjRKNS_5ctypeIwEE                                                                           
1182e1c0  _ZNKSt3__28time_getIwNS_19istreambuf_iteratorIwNS_11char_traitsIwEEEEE11__get_year4ERiRS4_S4_RjRKNS_5ctypeIwEE                                                                           
1182e220  _ZNKSt3__28time_getIwNS_19istreambuf_iteratorIwNS_11char_traitsIwEEEEE11do_get_timeES4_S4_RNS_8ios_baseERjP2tm                                                                           
1182e280  _ZNKSt3__28time_getIwNS_19istreambuf_iteratorIwNS_11char_traitsIwEEEEE12__get_minuteERiRS4_S4_RjRKNS_5ctypeIwEE                                                                          
1182e2e0  _ZNKSt3__28time_getIwNS_19istreambuf_iteratorIwNS_11char_traitsIwEEEEE12__get_secondERiRS4_S4_RjRKNS_5ctypeIwEE                                                                          
1182e340  _ZNKSt3__28time_getIwNS_19istreambuf_iteratorIwNS_11char_traitsIwEEEEE13__get_12_hourERiRS4_S4_RjRKNS_5ctypeIwEE                                                                         
1182e3a0  _ZNKSt3__28time_getIwNS_19istreambuf_iteratorIwNS_11char_traitsIwEEEEE13__get_weekdayERiRS4_S4_RjRKNS_5ctypeIwEE                                                                         
1182e400  _ZNKSt3__28time_getIwNS_19istreambuf_iteratorIwNS_11char_traitsIwEEEEE18__get_day_year_numERiRS4_S4_RjRKNS_5ctypeIwEE                                                                    
1182e460  _ZNKSt3__28time_getIwNS_19istreambuf_iteratorIwNS_11char_traitsIwEEEEE9__get_dayERiRS4_S4_RjRKNS_5ctypeIwEE                                                                              
1182e4c0  _ZNKSt3__29basic_iosIcNS_11char_traitsIcEEE5widenEc                                                                                                                                      
1182e520  _ZNSt3__210__time_putD1Ev                                                                                                                                                                
1182e520  _ZNSt3__210__time_putD2Ev                                                                                                                                                                
1182e580  _ZNSt3__211__call_onceERVmPvPFvS2_E                                                                                                                                                      
1182e5e0  _ZNSt3__212basic_stringIcNS_11char_traitsIcEENS_9allocatorIcEEED1Ev                                                                                                                      
1182e640  _ZNSt3__212basic_stringIwNS_11char_traitsIwEENS_9allocatorIwEEED1Ev                                                                                                                      
1182e6a0  _ZNSt3__213basic_istreamIcNS_11char_traitsIcEEED2Ev                                                                                                                                      
1182e700  _ZNSt3__213basic_istreamIwNS_11char_traitsIwEEED2Ev                                                                                                                                      
1182e760  _ZNSt3__213basic_ostreamIcNS_11char_traitsIcEEED2Ev                                                                                                                                      
1182e7c0  _ZNSt3__213basic_ostreamIwNS_11char_traitsIwEEED2Ev                                                                                                                                      
1182e820  _ZNSt3__215basic_streambufIcNS_11char_traitsIcEEE5uflowEv                                                                                                                                
1182e880  _ZNSt3__215basic_streambufIcNS_11char_traitsIcEEEC1Ev                                                                                                                                    
1182e8e0  _ZNSt3__215basic_streambufIwNS_11char_traitsIwEEE5uflowEv                                                                                                                                
1182e940  _ZNSt3__215basic_streambufIwNS_11char_traitsIwEEEC1Ev                                                                                                                                    
1182e9a0  _ZNSt3__217__call_once_proxyINS_5tupleIJONS_34_GLOBAL__N__10_locale_cpp_a718320311__fake_bindEEEEEEvPv                                                                                   
1182ea00  _ZNSt3__24endlIcNS_11char_traitsIcEEEERNS_13basic_ostreamIT_T0_EES7_                                                                                                                     
1182ea60  _ZNSt3__25ctypeIcEC1EPKhbj                                                                                                                                                               
1182ea60  _ZNSt3__25ctypeIcEC2EPKhbj                                                                                                                                                               
1182eac0  _ZNSt3__25ctypeIcED1Ev                                                                                                                                                                   
1182eac0  _ZNSt3__25ctypeIcED2Ev                                                                                                                                                                   
1182eb20  _ZNSt3__26localeD1Ev                                                                                                                                                                     
1182eb20  _ZNSt3__26localeD2Ev                                                                                                                                                                     
1182eb80  _ZNSt3__26vectorIPNS_6locale5facetENS_15__sso_allocatorIS3_Lj28EEEEC1Ej                                                                                                                  
1182ebe0  _ZNSt3__27codecvtIwciEC1Ej                                                                                                                                                               
1182ebe0  _ZNSt3__27codecvtIwciEC2Ej                                                                                                                                                               
1182ec40  _ZNSt3__27codecvtIwciED1Ev                                                                                                                                                               
1182ec40  _ZNSt3__27codecvtIwciED2Ev                                                                                                                                                               
1182eca0  _ZNSt3__28ios_base4InitD1Ev                                                                                                                                                              
1182eca0  _ZNSt3__28ios_base4InitD2Ev                                                                                                                                                              
1182ed00  _ZNSt3__28ios_base4initEPv                                                                                                                                                               
1182ed60  _ZNSt3__28numpunctIcED1Ev                                                                                                                                                                
1182ed60  _ZNSt3__28numpunctIcED2Ev                                                                                                                                                                
1182edc0  _ZNSt3__28numpunctIwED1Ev                                                                                                                                                                
1182edc0  _ZNSt3__28numpunctIwED2Ev                                                                                                                                                                
1182ee20  __TI_writemsg                                                                                                                                                                            
1182ee78  C$$IO$$                                                                                                                                                                                  
1182ee80  __c6xabi_llshru                                                                                                                                                                          
1182eee0  __c6xabi_remull                                                                                                                                                                          
1182ef40  __sti___12_iostream_cpp_d173592a__prio101                                                                                                                                                
1182efa0  _subcull                                                                                                                                                                                 
1182f000  lseek                                                                                                                                                                                    
1182f060  memccpy                                                                                                                                                                                  
1182f0c0  read                                                                                                                                                                                     
1182f120  sscanf                                                                                                                                                                                   
1182f180  strcpy                                                                                                                                                                                   
1182f240  write                                                                                                                                                                                    
1182f2a0  _ZN10__cxxabiv117__class_type_infoD0Ev                                                                                                                                                   
1182f2e0  _ZN10__cxxabiv120__si_class_type_infoD0Ev                                                                                                                                                
1182f320  _ZN10__cxxabiv121__vmi_class_type_infoD0Ev                                                                                                                                               
1182f360  _ZNKSt3__210moneypunctIcLb0EE11do_groupingEv                                                                                                                                             
1182f3a0  _ZNKSt3__210moneypunctIcLb0EE13do_neg_formatEv                                                                                                                                           
1182f3e0  _ZNKSt3__210moneypunctIcLb0EE13do_pos_formatEv                                                                                                                                           
1182f420  _ZNKSt3__210moneypunctIcLb0EE14do_curr_symbolEv                                                                                                                                          
1182f460  _ZNKSt3__210moneypunctIcLb0EE16do_negative_signEv                                                                                                                                        
1182f4a0  _ZNKSt3__210moneypunctIcLb0EE16do_positive_signEv                                                                                                                                        
1182f4e0  _ZNKSt3__210moneypunctIcLb1EE11do_groupingEv                                                                                                                                             
1182f520  _ZNKSt3__210moneypunctIcLb1EE13do_neg_formatEv                                                                                                                                           
1182f560  _ZNKSt3__210moneypunctIcLb1EE13do_pos_formatEv                                                                                                                                           
1182f5a0  _ZNKSt3__210moneypunctIcLb1EE14do_curr_symbolEv                                                                                                                                          
1182f5e0  _ZNKSt3__210moneypunctIcLb1EE16do_negative_signEv                                                                                                                                        
1182f620  _ZNKSt3__210moneypunctIcLb1EE16do_positive_signEv                                                                                                                                        
1182f660  _ZNKSt3__210moneypunctIwLb0EE11do_groupingEv                                                                                                                                             
1182f6a0  _ZNKSt3__210moneypunctIwLb0EE13do_neg_formatEv                                                                                                                                           
1182f6e0  _ZNKSt3__210moneypunctIwLb0EE13do_pos_formatEv                                                                                                                                           
1182f720  _ZNKSt3__210moneypunctIwLb0EE14do_curr_symbolEv                                                                                                                                          
1182f760  _ZNKSt3__210moneypunctIwLb0EE16do_negative_signEv                                                                                                                                        
1182f7a0  _ZNKSt3__210moneypunctIwLb0EE16do_positive_signEv                                                                                                                                        
1182f7e0  _ZNKSt3__210moneypunctIwLb1EE11do_groupingEv                                                                                                                                             
1182f820  _ZNKSt3__210moneypunctIwLb1EE13do_neg_formatEv                                                                                                                                           
1182f860  _ZNKSt3__210moneypunctIwLb1EE13do_pos_formatEv                                                                                                                                           
1182f8a0  _ZNKSt3__210moneypunctIwLb1EE14do_curr_symbolEv                                                                                                                                          
1182f8e0  _ZNKSt3__210moneypunctIwLb1EE16do_negative_signEv                                                                                                                                        
1182f920  _ZNKSt3__210moneypunctIwLb1EE16do_positive_signEv                                                                                                                                        
1182f960  _ZNKSt3__212basic_stringIcNS_11char_traitsIcEENS_9allocatorIcEEE4dataEv                                                                                                                  
1182f9a0  _ZNKSt3__219ostreambuf_iteratorIcNS_11char_traitsIcEEE6failedEv                                                                                                                          
1182f9e0  _ZNKSt3__25ctypeIcE5widenEc                                                                                                                                                              
1182fa20  _ZNKSt3__25ctypeIwE5do_isEhw                                                                                                                                                             
1182fa60  _ZNKSt3__25ctypeIwE8do_widenEPKcS3_Pw                                                                                                                                                    
1182faa0  _ZNKSt3__26locale9use_facetERNS0_2idE                                                                                                                                                    
1182fae0  _ZNKSt3__27codecvtIDiciE9do_lengthERiPKcS4_j                                                                                                                                             
1182fb20  _ZNKSt3__27codecvtIDsciE9do_lengthERiPKcS4_j                                                                                                                                             
1182fb60  _ZNKSt3__27codecvtIcciE9do_lengthERiPKcS4_j                                                                                                                                              
1182fba0  _ZNKSt3__27codecvtIwciE13do_max_lengthEv                                                                                                                                                 
1182fbe0  _ZNKSt3__28time_getIcNS_19istreambuf_iteratorIcNS_11char_traitsIcEEEEE11do_get_timeES4_S4_RNS_8ios_baseERjP2tm                                                                           
1182fc20  _ZNSt3__210__stdinbufIcED0Ev                                                                                                                                                             
1182fc60  _ZNSt3__210__stdinbufIwED0Ev                                                                                                                                                             
1182fca0  _ZNSt3__210moneypunctIcLb0EED0Ev                                                                                                                                                         
1182fce0  _ZNSt3__210moneypunctIcLb1EED0Ev                                                                                                                                                         
1182fd20  _ZNSt3__210moneypunctIwLb0EED0Ev                                                                                                                                                         
1182fd60  _ZNSt3__210moneypunctIwLb1EED0Ev                                                                                                                                                         
1182fda0  _ZNSt3__210unique_ptrIcPFvPvEE5resetEPc                                                                                                                                                  
1182fde0  _ZNSt3__210unique_ptrIhPFvPvEE5resetEPh                                                                                                                                                  
1182fe20  _ZNSt3__210unique_ptrIwPFvPvEE5resetEPw                                                                                                                                                  
1182fe60  _ZNSt3__211__stdoutbufIcED0Ev                                                                                                                                                            
1182fea0  _ZNSt3__211__stdoutbufIwED0Ev                                                                                                                                                            
1182fee0  _ZNSt3__211char_traitsIcE4copyEPcPKcj                                                                                                                                                    
1182ff20  _ZNSt3__211char_traitsIcE4moveEPcPKcj                                                                                                                                                    
1182ff60  _ZNSt3__211char_traitsIcE6assignEPcjc                                                                                                                                                    
1182ffa0  _ZNSt3__211char_traitsIwE4copyEPwPKwj                                                                                                                                                    
1182ffe0  _ZNSt3__211char_traitsIwE4moveEPwPKwj                                                                                                                                                    
11830020  _ZNSt3__212basic_stringIcNS_11char_traitsIcEENS_9allocatorIcEEE6assignEPKc                                                                                                               
11830060  _ZNSt3__212basic_stringIcNS_11char_traitsIcEENS_9allocatorIcEEEC1Ejc                                                                                                                     
118300a0  _ZNSt3__212basic_stringIcNS_11char_traitsIcEENS_9allocatorIcEEEC1Ev                                                                                                                      
118300e0  _ZNSt3__212basic_stringIwNS_11char_traitsIwEENS_9allocatorIwEEE6assignEPKw                                                                                                               
11830120  _ZNSt3__212basic_stringIwNS_11char_traitsIwEENS_9allocatorIwEEEC1Ev                                                                                                                      
11830160  _ZNSt3__213basic_istreamIcNS_11char_traitsIcEEED0Ev                                                                                                                                      
118301a0  _ZNSt3__213basic_istreamIcNS_11char_traitsIcEEED1Ev                                                                                                                                      
118301e0  _ZNSt3__213basic_istreamIwNS_11char_traitsIwEEED0Ev                                                                                                                                      
11830220  _ZNSt3__213basic_istreamIwNS_11char_traitsIwEEED1Ev                                                                                                                                      
11830260  _ZNSt3__213basic_ostreamIcNS_11char_traitsIcEEED0Ev                                                                                                                                      
118302a0  _ZNSt3__213basic_ostreamIcNS_11char_traitsIcEEED1Ev                                                                                                                                      
118302e0  _ZNSt3__213basic_ostreamIwNS_11char_traitsIwEEED0Ev                                                                                                                                      
11830320  _ZNSt3__213basic_ostreamIwNS_11char_traitsIwEEED1Ev                                                                                                                                      
11830360  _ZNSt3__214__num_get_base10__get_baseERNS_8ios_baseE                                                                                                                                     
118303a0  _ZNSt3__214__shared_count16__release_sharedEv                                                                                                                                            
118303e0  _ZNSt3__215basic_streambufIcNS_11char_traitsIcEEE5sgetcEv                                                                                                                                
11830420  _ZNSt3__215basic_streambufIcNS_11char_traitsIcEEED0Ev                                                                                                                                    
11830460  _ZNSt3__215basic_streambufIcNS_11char_traitsIcEEED1Ev                                                                                                                                    
118304a0  _ZNSt3__215basic_streambufIwNS_11char_traitsIwEEE5sgetcEv                                                                                                                                
118304e0  _ZNSt3__215basic_streambufIwNS_11char_traitsIwEEED0Ev                                                                                                                                    
11830520  _ZNSt3__215basic_streambufIwNS_11char_traitsIwEEED1Ev                                                                                                                                    
11830560  _ZNSt3__219ostreambuf_iteratorIcNS_11char_traitsIcEEEC1ERNS_13basic_ostreamIcS2_EE                                                                                                       
118305a0  _ZNSt3__222__compressed_pair_elemINS_12basic_stringIwNS_11char_traitsIwEENS_9allocatorIwEEE5__repELi0ELb0EEC1Ev                                                                          
118305e0  _ZNSt3__25ctypeIcED0Ev                                                                                                                                                                   
11830620  _ZNSt3__25ctypeIwED0Ev                                                                                                                                                                   
11830660  _ZNSt3__26locale5__imp12make_classicEv                                                                                                                                                   
118306a0  _ZNSt3__26locale5__impD0Ev                                                                                                                                                               
118306e0  _ZNSt3__26locale5facetD0Ev                                                                                                                                                               
11830720  _ZNSt3__26localeC1Ev                                                                                                                                                                     
11830720  _ZNSt3__26localeC2Ev                                                                                                                                                                     
11830760  _ZNSt3__26vectorIPNS_6locale5facetENS_15__sso_allocatorIS3_Lj28EEEE18__construct_at_endEj                                                                                                
118307a0  _ZNSt3__27codecvtIDiciED0Ev                                                                                                                                                              
118307e0  _ZNSt3__27codecvtIDsciED0Ev                                                                                                                                                              
11830820  _ZNSt3__27codecvtIcciED0Ev                                                                                                                                                               
11830860  _ZNSt3__27codecvtIwciED0Ev                                                                                                                                                               
118308a0  _ZNSt3__27collateIcED0Ev                                                                                                                                                                 
118308e0  _ZNSt3__27collateIwED0Ev                                                                                                                                                                 
11830920  _ZNSt3__27num_getIcNS_19istreambuf_iteratorIcNS_11char_traitsIcEEEEED0Ev                                                                                                                 
11830960  _ZNSt3__27num_getIwNS_19istreambuf_iteratorIwNS_11char_traitsIwEEEEED0Ev                                                                                                                 
118309a0  _ZNSt3__27num_putIcNS_19ostreambuf_iteratorIcNS_11char_traitsIcEEEEED0Ev                                                                                                                 
118309e0  _ZNSt3__27num_putIwNS_19ostreambuf_iteratorIwNS_11char_traitsIwEEEEED0Ev                                                                                                                 
11830a20  _ZNSt3__28ios_base5widthEi                                                                                                                                                               
11830a60  _ZNSt3__28ios_baseD0Ev                                                                                                                                                                   
11830aa0  _ZNSt3__28messagesIcED0Ev                                                                                                                                                                
11830ae0  _ZNSt3__28messagesIwED0Ev                                                                                                                                                                
11830b20  _ZNSt3__28numpunctIcED0Ev                                                                                                                                                                
11830b60  _ZNSt3__28numpunctIwED0Ev                                                                                                                                                                
11830ba0  _ZNSt3__28time_getIcNS_19istreambuf_iteratorIcNS_11char_traitsIcEEEEED0Ev                                                                                                                
11830be0  _ZNSt3__28time_getIwNS_19istreambuf_iteratorIwNS_11char_traitsIwEEEEED0Ev                                                                                                                
11830c20  _ZNSt3__28time_putIcNS_19ostreambuf_iteratorIcNS_11char_traitsIcEEEEED0Ev                                                                                                                
11830c60  _ZNSt3__28time_putIcNS_19ostreambuf_iteratorIcNS_11char_traitsIcEEEEED1Ev                                                                                                                
11830ca0  _ZNSt3__28time_putIwNS_19ostreambuf_iteratorIwNS_11char_traitsIwEEEEED0Ev                                                                                                                
11830ce0  _ZNSt3__28time_putIwNS_19ostreambuf_iteratorIwNS_11char_traitsIwEEEEED1Ev                                                                                                                
11830d20  _ZNSt3__29basic_iosIcNS_11char_traitsIcEEED0Ev                                                                                                                                           
11830d60  _ZNSt3__29basic_iosIwNS_11char_traitsIwEEED0Ev                                                                                                                                           
11830da0  _ZNSt3__29money_getIcNS_19istreambuf_iteratorIcNS_11char_traitsIcEEEEED0Ev                                                                                                               
11830de0  _ZNSt3__29money_getIwNS_19istreambuf_iteratorIwNS_11char_traitsIwEEEEED0Ev                                                                                                               
11830e20  _ZNSt3__29money_putIcNS_19ostreambuf_iteratorIcNS_11char_traitsIcEEEEED0Ev                                                                                                               
11830e60  _ZNSt3__29money_putIwNS_19ostreambuf_iteratorIwNS_11char_traitsIwEEEEED0Ev                                                                                                               
11830ea0  _ZNSt3__2lsINS_11char_traitsIcEEEERNS_13basic_ostreamIcT_EES6_PKc                                                                                                                        
11830ee0  __TI_frcmpyd_div                                                                                                                                                                         
11830f20  __c6xabi_isinf                                                                                                                                                                           
11830fa0  _args_main                                                                                                                                                                               
11831060  asprintf_l                                                                                                                                                                               
118310a0  iswlower                                                                                                                                                                                 
118310e0  mbrtowc_l                                                                                                                                                                                
11831120  snprintf_l                                                                                                                                                                               
11831160  sscanf_l                                                                                                                                                                                 
118311a0  strlen                                                                                                                                                                                   
118311e0  vsscanf                                                                                                                                                                                  
11831220  wcslen                                                                                                                                                                                   
11831320  _ZN10__cxxabiv117__class_type_infoD1Ev                                                                                                                                                   
11831320  _ZN10__cxxabiv117__class_type_infoD2Ev                                                                                                                                                   
11831340  _ZN10__cxxabiv120__si_class_type_infoD1Ev                                                                                                                                                
11831340  _ZN10__cxxabiv120__si_class_type_infoD2Ev                                                                                                                                                
11831360  _ZN10__cxxabiv121__vmi_class_type_infoD1Ev                                                                                                                                               
11831360  _ZN10__cxxabiv121__vmi_class_type_infoD2Ev                                                                                                                                               
118313a0  _ZNKSt3__210moneypunctIcLb0EE14do_frac_digitsEv                                                                                                                                          
118313c0  _ZNKSt3__210moneypunctIcLb0EE16do_decimal_pointEv                                                                                                                                        
118313e0  _ZNKSt3__210moneypunctIcLb0EE16do_thousands_sepEv                                                                                                                                        
11831400  _ZNKSt3__210moneypunctIcLb1EE14do_frac_digitsEv                                                                                                                                          
11831420  _ZNKSt3__210moneypunctIcLb1EE16do_decimal_pointEv                                                                                                                                        
11831440  _ZNKSt3__210moneypunctIcLb1EE16do_thousands_sepEv                                                                                                                                        
11831460  _ZNKSt3__210moneypunctIwLb0EE14do_frac_digitsEv                                                                                                                                          
11831480  _ZNKSt3__210moneypunctIwLb0EE16do_decimal_pointEv                                                                                                                                        
118314a0  _ZNKSt3__210moneypunctIwLb0EE16do_thousands_sepEv                                                                                                                                        
118314c0  _ZNKSt3__210moneypunctIwLb1EE14do_frac_digitsEv                                                                                                                                          
118314e0  _ZNKSt3__210moneypunctIwLb1EE16do_decimal_pointEv                                                                                                                                        
11831500  _ZNKSt3__210moneypunctIwLb1EE16do_thousands_sepEv                                                                                                                                        
11831520  _ZNKSt3__213basic_ostreamIcNS_11char_traitsIcEEE6sentrycvbEv                                                                                                                             
11831540  _ZNKSt3__220__vector_base_commonILb1EE20__throw_length_errorEv                                                                                                                           
11831560  _ZNKSt3__221__basic_string_commonILb1EE20__throw_length_errorEv                                                                                                                          
11831580  _ZNKSt3__222__compressed_pair_elemINS_12basic_stringIcNS_11char_traitsIcEENS_9allocatorIcEEE5__repELi0ELb0EE5__getEv                                                                     
118315a0  _ZNKSt3__222__compressed_pair_elemINS_12basic_stringIwNS_11char_traitsIwEENS_9allocatorIwEEE5__repELi0ELb0EE5__getEv                                                                     
118315c0  _ZNKSt3__25ctypeIcE5widenEPKcS3_Pc                                                                                                                                                       
118315e0  _ZNKSt3__25ctypeIcE6narrowEcc                                                                                                                                                            
11831600  _ZNKSt3__25ctypeIcE7toupperEc                                                                                                                                                            
11831620  _ZNKSt3__25ctypeIcE8do_widenEc                                                                                                                                                           
11831640  _ZNKSt3__25ctypeIcE9do_narrowEcc                                                                                                                                                         
11831660  _ZNKSt3__25ctypeIwE2isEhw                                                                                                                                                                
11831680  _ZNKSt3__25ctypeIwE5widenEPKcS3_Pw                                                                                                                                                       
118316a0  _ZNKSt3__25ctypeIwE5widenEc                                                                                                                                                              
118316c0  _ZNKSt3__25ctypeIwE8do_widenEc                                                                                                                                                           
118316e0  _ZNKSt3__25ctypeIwE9do_narrowEwc                                                                                                                                                         
11831700  _ZNKSt3__26locale5__imp9use_facetEl                                                                                                                                                      
11831720  _ZNKSt3__26vectorIPNS_6locale5facetENS_15__sso_allocatorIS3_Lj28EEEE8max_sizeEv                                                                                                          
11831740  _ZNKSt3__27codecvtIDiciE10do_unshiftERiPcS3_RS3_                                                                                                                                         
11831760  _ZNKSt3__27codecvtIDiciE11do_encodingEv                                                                                                                                                  
11831780  _ZNKSt3__27codecvtIDiciE13do_max_lengthEv                                                                                                                                                
118317a0  _ZNKSt3__27codecvtIDiciE16do_always_noconvEv                                                                                                                                             
118317c0  _ZNKSt3__27codecvtIDsciE10do_unshiftERiPcS3_RS3_                                                                                                                                         
118317e0  _ZNKSt3__27codecvtIDsciE11do_encodingEv                                                                                                                                                  
11831800  _ZNKSt3__27codecvtIDsciE13do_max_lengthEv                                                                                                                                                
11831820  _ZNKSt3__27codecvtIDsciE16do_always_noconvEv                                                                                                                                             
11831840  _ZNKSt3__27codecvtIcciE10do_unshiftERiPcS3_RS3_                                                                                                                                          
11831860  _ZNKSt3__27codecvtIcciE11do_encodingEv                                                                                                                                                   
11831880  _ZNKSt3__27codecvtIcciE13do_max_lengthEv                                                                                                                                                 
118318a0  _ZNKSt3__27codecvtIcciE16do_always_noconvEv                                                                                                                                              
118318c0  _ZNKSt3__27codecvtIcciE3outERiPKcS4_RS4_PcS6_RS6_                                                                                                                                        
118318e0  _ZNKSt3__27codecvtIcciE5do_inERiPKcS4_RS4_PcS6_RS6_                                                                                                                                      
11831900  _ZNKSt3__27codecvtIcciE6do_outERiPKcS4_RS4_PcS6_RS6_                                                                                                                                     
11831920  _ZNKSt3__27codecvtIwciE13always_noconvEv                                                                                                                                                 
11831940  _ZNKSt3__27codecvtIwciE16do_always_noconvEv                                                                                                                                              
11831960  _ZNKSt3__27codecvtIwciE3outERiPKwS4_RS4_PcS6_RS6_                                                                                                                                        
11831980  _ZNKSt3__27num_getIcNS_19istreambuf_iteratorIcNS_11char_traitsIcEEEEE6do_getES4_S4_RNS_8ios_baseERjRd                                                                                    
118319a0  _ZNKSt3__27num_getIcNS_19istreambuf_iteratorIcNS_11char_traitsIcEEEEE6do_getES4_S4_RNS_8ios_baseERjRe                                                                                    
118319c0  _ZNKSt3__27num_getIcNS_19istreambuf_iteratorIcNS_11char_traitsIcEEEEE6do_getES4_S4_RNS_8ios_baseERjRf                                                                                    
